
simple:     file format elf64-littleriscv

Contents of section .text.init:
 80000000 81400141 81410142 81420143 81430144  .@.A.A.B.B.C.C.D
 80000010 81440145 81450146 81460147 81470148  .D.E.E.F.F.G.G.H
 80000020 81480149 8149014a 814a014b 814b014c  .H.I.I.J.J.K.K.L
 80000030 814c014d 814d014e 814e014f 814ff962  .L.M.M.N.N.O.O.b
 80000040 73a00230 8542fe02 63d80200 05459712  s..0.B..c....E..
 80000050 000023a9 a2faddbf 97020000 93820209  ..#.............
 80000060 73905230 73103000 530000f0 d30000f0  s.R0s.0.S.......
 80000070 530100f0 d30100f0 530200f0 d30200f0  S.......S.......
 80000080 530300f0 d30300f0 530400f0 d30400f0  S.......S.......
 80000090 530500f0 d30500f0 530600f0 d30600f0  S.......S.......
 800000a0 530700f0 d30700f0 530800f0 d30800f0  S.......S.......
 800000b0 530900f0 d30900f0 530a00f0 d30a00f0  S.......S.......
 800000c0 530b00f0 d30b00f0 530c00f0 d30c00f0  S.......S.......
 800000d0 530d00f0 d30d00f0 530e00f0 d30e00f0  S.......S.......
 800000e0 530f00f0 d30f00f0 97020000 93828203  S...............
 800000f0 73905230 97410000 938141e5 13827187  s.R0.A....A...q.
 80000100 137202fc 732540f1 85456370 b5001301  .r..s%@..Ecp....
 80000110 15004601 12911316 15013292 6f207006  ..F.......2.o p.
 80000120 6d7106e4 0ae80eec 12f016f4 1af81efc  mq..............
 80000130 a2e0a6e4 aae8aeec b2f0b6f4 baf8befc  ................
 80000140 42e146e5 4ae94eed 52f156f5 5af95efd  B.F.J.N.R.V.Z.^.
 80000150 e2e1e6e5 eae9eeed f2f1f6f5 faf9fefd  ................
 80000160 73252034 f3251034 0a86ef20 606e7310  s% 4.%.4... `ns.
 80000170 15348962 9b820280 73a00230 a2604261  .4.b....s..0.`Ba
 80000180 e2610272 a2724273 e2730664 a6644665  .a.r.rBs.s.d.dFe
 80000190 e6650676 a6764677 e6770a68 aa684a69  .e.v.vFw.w.h.hJi
 800001a0 ea690a7a aa7a4a7b ea7b0e6c ae6c4e6d  .i.z.zJ{.{.l.lNm
 800001b0 ee6d0e7e ae7e4e7f ee7f5161 73002030  .m.~.~N...Qas. 0
 800001c0 0000                                 ..              
Contents of section .tohost:
 80001000 00000000 00000000 00000000 00000000  ................
 80001010 00000000 00000000 00000000 00000000  ................
 80001020 00000000 00000000 00000000 00000000  ................
 80001030 00000000 00000000 00000000 00000000  ................
 80001040 00000000 00000000                    ........        
Contents of section .text:
 80002000 5d71a2e4 8008aa87 2330b4fc 233cc4fa  ]q......#0..#<..
 80002010 2326f4fc 232604fe 41a88327 c4fe8a07  #&..#&..A..'....
 80002020 033704fc ba979c43 2324f4fe 8327c4fe  .7.....C#$...'..
 80002030 85078a07 033704fc ba979c43 2322f4fe  .....7.....C#"..
 80002040 8327c4fe 8a070337 84fbba97 9c432320  .'.....7.....C# 
 80002050 f4fe8327 c4fe8507 8a070337 84fbba97  ...'.......7....
 80002060 9c43232e f4fc8327 84fe3e87 832704fe  .C#....'..>..'..
 80002070 01278127 6307f700 8327c4fe 85278127  .'.'c....'...'.'
 80002080 59a08327 44fe3e87 8327c4fd 01278127  Y..'D.>..'...'.'
 80002090 6307f700 8327c4fe 89278127 ada08327  c....'...'.'...'
 800020a0 c4fe8927 2326f4fe 8327c4fc 1bd7f701  ...'#&...'......
 800020b0 b99f9bd7 17408127 9b971700 1b870700  .....@.'........
 800020c0 8327c4fe 8127e3ca e7f48327 c4fc858b  .'...'.....'....
 800020d0 81278dcb 8327c4fc 8a07f117 033704fc  .'...'.......7..
 800020e0 ba979c43 9b860700 8327c4fc 8a07f117  ...C.....'......
 800020f0 033784fb ba979c43 36876305 f7008327  .7.....C6.c....'
 80002100 c4fc11a0 81473e85 26646161 82801d71  .....G>.&daa...q
 80002110 a2ec8010 aa872338 b4fa2334 c4fa232e  ......#8..#4..#.
 80002120 f4fa2326 04fe6da0 8327c4fe 8e070337  ..#&..m..'.....7
 80002130 04fbba97 9c232730 f4fe8327 c4fe8507  .....#'0...'....
 80002140 8e070337 04fbba97 9c23273c f4fc8327  ...7.....#'<...'
 80002150 c4fe8e07 033784fa ba979c23 2738f4fc  .....7.....#'8..
 80002160 8327c4fe 85078e07 033784fa ba979c23  .'.......7.....#
 80002170 2734f4fc 073704fe 873704fd d327f7a2  '4...7...7...'..
 80002180 b337f000 93f7f70f 2322f4fc 073784fd  .7......#"...7..
 80002190 873784fc d327f7a2 b337f000 93f7f70f  .7...'...7......
 800021a0 2320f4fc 832744fc 3e878327 04fcf98f  # ...'D.>..'....
 800021b0 812791eb 8327c4fe 85278127 032744fc  .'...'...'.'.'D.
 800021c0 b99f8127 9da08327 c4fe8927 2326f4fe  ...'...'...'#&..
 800021d0 8327c4fb 1bd7f701 b99f9bd7 17408127  .'...........@.'
 800021e0 9b971700 1b870700 8327c4fe 8127e3cd  .........'...'..
 800021f0 e7f28327 c4fb858b 81279dc7 8327c4fb  ...'.....'...'..
 80002200 8e07e117 033704fb ba979823 8327c4fb  .....7.....#.'..
 80002210 8e07e117 033784fa ba979c23 d327f7a2  .....7.....#.'..
 80002220 81e78327 c4fb11a0 81473e85 66642561  ...'.....G>.fd%a
 80002230 82800111 22ec0010 aa872326 f4fe0f00  ....".....#&....
 80002240 f00f8327 020093b7 170093f7 f70f1b87  ...'............
 80002250 07002320 e2009717 00009387 274f0547  ..# ........'O.G
 80002260 0f00500f afa6e704 9b870600 1b870700  ..P.............
 80002270 8327c4fe fd378127 6310f702 97170000  .'...7.'c.......
 80002280 9387c74c 23a00700 03270200 97170000  ...L#....'......
 80002290 9387074c 98c329a8 01009717 00009387  ...L..).........
 800022a0 274b9c43 1b870700 83270200 e317f7fe  'K.C.....'......
 800022b0 0f00f00f 01006264 05618280 797122f4  ......bd.a..yq".
 800022c0 0018233c a4fc8337 84fd13d7 17008337  ..#<...7.......7
 800022d0 84fdb98f 858b2334 f4fe8337 84fd13d7  ......#4...7....
 800022e0 17008337 84fefa17 d98f3e85 22744561  ...7......>."tEa
 800022f0 82800111 22ec0010 2334a4fe 833784fe  ...."...#4...7..
 80002300 83d70700 81278d8b 812799c3 914711a0  .....'...'...G..
 80002310 89473e85 62640561 82807971 22f40018  .G>.bd.a..yq"...
 80002320 233ca4fc 85478d47 2326f4fe 8327c4fe  #<...G.G#&...'..
 80002330 3e852274 45618280 011106ec 22e80010  >."tEa......"...
 80002340 1145eff0 9ffdaa87 81272324 f4fe8327  .E.......'#$...'
 80002350 84febe85 17150000 1305c524 ef00b053  ...........$...S
 80002360 a9472320 f4fe1307 04fe9307 84fe3a86  .G# ..........:.
 80002370 be850545 eff0dfc8 aa873e85 e2604264  ...E......>..`Bd
 80002380 05618280 5d71a2e4 8008aa87 2330b4fc  .a..]q......#0..
 80002390 233cc4fa 2326f4fc 232604fe 41a88327  #<..#&..#&..A..'
 800023a0 c4fe8a07 033704fc ba979c43 2324f4fe  .....7.....C#$..
 800023b0 8327c4fe 85078a07 033704fc ba979c43  .'.......7.....C
 800023c0 2322f4fe 8327c4fe 8a070337 84fbba97  #"...'.....7....
 800023d0 9c432320 f4fe8327 c4fe8507 8a070337  .C# ...'.......7
 800023e0 84fbba97 9c43232e f4fc8327 84fe3e87  .....C#....'..>.
 800023f0 832704fe 01278127 6307f700 8327c4fe  .'...'.'c....'..
 80002400 85278127 59a08327 44fe3e87 8327c4fd  .'.'Y..'D.>..'..
 80002410 01278127 6307f700 8327c4fe 89278127  .'.'c....'...'.'
 80002420 ada08327 c4fe8927 2326f4fe 8327c4fc  ...'...'#&...'..
 80002430 1bd7f701 b99f9bd7 17408127 9b971700  .........@.'....
 80002440 1b870700 8327c4fe 8127e3ca e7f48327  .....'...'.....'
 80002450 c4fc858b 81278dcb 8327c4fc 8a07f117  .....'...'......
 80002460 033704fc ba979c43 9b860700 8327c4fc  .7.....C.....'..
 80002470 8a07f117 033784fb ba979c43 36876305  .....7.....C6.c.
 80002480 f7008327 c4fc11a0 81473e85 26646161  ...'.....G>.&daa
 80002490 82801d71 a2ec8010 aa872338 b4fa2334  ...q......#8..#4
 800024a0 c4fa232e f4fa2326 04fe6da0 8327c4fe  ..#...#&..m..'..
 800024b0 8e070337 04fbba97 9c232730 f4fe8327  ...7.....#'0...'
 800024c0 c4fe8507 8e070337 04fbba97 9c23273c  .......7.....#'<
 800024d0 f4fc8327 c4fe8e07 033784fa ba979c23  ...'.....7.....#
 800024e0 2738f4fc 8327c4fe 85078e07 033784fa  '8...'.......7..
 800024f0 ba979c23 2734f4fc 073704fe 873704fd  ...#'4...7...7..
 80002500 d327f7a2 b337f000 93f7f70f 2322f4fc  .'...7......#"..
 80002510 073784fd 873784fc d327f7a2 b337f000  .7...7...'...7..
 80002520 93f7f70f 2320f4fc 832744fc 3e878327  ....# ...'D.>..'
 80002530 04fcf98f 812791eb 8327c4fe 85278127  .....'...'...'.'
 80002540 032744fc b99f8127 9da08327 c4fe8927  .'D....'...'...'
 80002550 2326f4fe 8327c4fb 1bd7f701 b99f9bd7  #&...'..........
 80002560 17408127 9b971700 1b870700 8327c4fe  .@.'.........'..
 80002570 8127e3cd e7f28327 c4fb858b 81279dc7  .'.....'.....'..
 80002580 8327c4fb 8e07e117 033704fb ba979823  .'.......7.....#
 80002590 8327c4fb 8e07e117 033784fa ba979c23  .'.......7.....#
 800025a0 d327f7a2 81e78327 c4fb11a0 81473e85  .'.....'.....G>.
 800025b0 66642561 82800111 22ec0010 aa872326  fd%a....".....#&
 800025c0 f4fe0f00 f00f8327 020493b7 170093f7  .......'........
 800025d0 f70f1b87 07002320 e2049717 00009387  ......# ........
 800025e0 67190547 0f00500f afa6e704 9b870600  g..G..P.........
 800025f0 1b870700 8327c4fe fd378127 6310f702  .....'...7.'c...
 80002600 97170000 93870717 23a00700 03270204  ........#....'..
 80002610 97170000 93874716 98c329a8 01009717  ......G...).....
 80002620 00009387 67159c43 1b870700 83270204  ....g..C.....'..
 80002630 e317f7fe 0f00f00f 01006264 05618280  ..........bd.a..
 80002640 797122f4 0018233c a4fc8337 84fd13d7  yq"...#<...7....
 80002650 17008337 84fdb98f 858b2334 f4fe8337  ...7......#4...7
 80002660 84fd13d7 17008337 84fefa17 d98f3e85  .......7......>.
 80002670 22744561 82800111 22ec0010 2334a4fe  "tEa...."...#4..
 80002680 833784fe 83d70700 81278d8b 812799c3  .7.......'...'..
 80002690 914711a0 89473e85 62640561 82807171  .G...G>.bd.a..qq
 800026a0 22f50019 233ca4f6 2338b4f6 2334c4f6  "...#<..#8..#4..
 800026b0 2330d4f6 930704ff 233cf4f4 833784f5  #0......#<...7..
 800026c0 938707f9 9387f703 99839a07 033784f7  .............7..
 800026d0 98e30337 04f798e7 033784f6 98eb0337  ...7.....7.....7
 800026e0 04f698ef 0f00f00f be8617f7 ffff1307  ................
 800026f0 679114e3 010017f7 ffff1307 a7941863  g..............c
 80002700 7ddb17f7 ffff1307 e7932330 07000f00  }.........#0....
 80002710 f00f9c63 3e852a74 4d618280 5d71a2e4  ...c>.*tMa..]q..
 80002720 8008aa87 232ef4fa 232e04fc 01008327  ....#...#......'
 80002730 c4fd1b87 07008547 e3cbe7fe f32700b0  .......G.....'..
 80002740 2338f4fc 833704fd 2334f4fe 8327c4fb  #8...7..#4...'..
 80002750 81278def 17170000 1307c7ff 8327c4fd  .'...........'..
 80002760 8e07ba97 9c630337 84feb307 f7402334  .....c.7.....@#4
 80002770 f4fe1717 00001307 e7fe8327 c4fd8e07  ...........'....
 80002780 ba971717 00001307 67e298e3 8327c4fd  ........g....'..
 80002790 1b871700 232ee4fc 17170000 130787fb  ....#...........
 800027a0 8e07ba97 033784fe 98e30100 8327c4fd  .....7.......'..
 800027b0 1b870700 8547e3cb e7fef327 20b02334  .....G.....' .#4
 800027c0 f4fc8337 84fc2330 f4fe8327 c4fb8127  ...7..#0...'...'
 800027d0 8def1717 00001307 e7f78327 c4fd8e07  ...........'....
 800027e0 ba979c63 033704fe b307f740 2330f4fe  ...c.7.....@#0..
 800027f0 17170000 130707f7 8327c4fd 8e07ba97  .........'......
 80002800 17170000 130707db 98e38327 c4fd1b87  ...........'....
 80002810 1700232e e4fc1717 00001307 a7f38e07  ..#.............
 80002820 ba970337 04fe98e3 01002664 61618280  ...7......&daa..
 80002830 011122ec 00102334 a4fe8337 84fe8607  .."...#4...7....
 80002840 13e71700 97e7ffff 9387c77b 98e301a0  ...........{....
 80002850 797106f4 22f00018 2334a4fe 2330b4fe  yq.."...#4..#0..
 80002860 233cc4fc 13059053 eff09ffc 011106ec  #<.....S........
 80002870 22e80010 aa872326 f4fe8327 c4fe3e85  ".....#&...'..>.
 80002880 eff01ffb 411106e4 22e00008 13056008  ....A...".....`.
 80002890 eff0dffd 797106f4 22f026ec 0018233c  ....yq..".&...#<
 800028a0 a4fc8334 84fd0335 84fdef00 102daa87  ...4...5.....-..
 800028b0 be862686 85451305 0004eff0 5fde0100  ..&..E......_...
 800028c0 a2700274 e2644561 82800111 22ec0010  .p.t.dEa...."...
 800028d0 aa872e87 2326f4fe ba872324 f4fe0100  ....#&....#$....
 800028e0 8327c4fe 8127edff 01000100 62640561  .'...'......bd.a
 800028f0 82800111 06ec22e8 0010aa87 2330b4fe  ......".....#0..
 80002900 2326f4fe 17150000 1305c5cb eff09ff8  #&..............
 80002910 fd573e85 e2604264 05618280 011106ec  .W>..`Bd.a......
 80002920 22e80010 17170000 130747e5 97170000  ".........G.....
 80002930 9387c7e4 b307f740 2334f4fe 92870336  .......@#4.....6
 80002940 84fe9715 00009385 65e33e85 ef00900a  ........e.>.....
 80002950 1387c18f 97170000 938747e2 b307f740  ..........G....@
 80002960 2330f4fe 12878337 84feba97 033604fe  #0.....7.....6..
 80002970 81453e85 ef009013 0100e260 42640561  .E>........`Bd.a
 80002980 82807171 06f522f1 26ed0019 aa872e87  ..qq..".&.......
 80002990 232ef4f4 ba87232c f4f49307 04fe2338  #.....#,......#8
 800029a0 f4f48337 04f59387 07f89387 f7039983  ...7............
 800029b0 93946700 eff09ff6 032784f5 8327c4f5  ..g......'...'..
 800029c0 ba853e85 eff07ff0 81450145 eff0df96  ..>......E.E....
 800029d0 aa872328 f4fc233c 94fc232a 04fc95a0  ..#(..#<..#*....
 800029e0 17170000 130707d7 832744fd 8e07ba97  .........'D.....
 800029f0 9c63b9c3 17170000 1307c7d6 832744fd  .c...........'D.
 80002a00 8e07ba97 90631717 00001307 a7d48327  .....c.........'
 80002a10 44fd8e07 ba979c63 be869715 00009385  D......c........
 80002a20 e5bb0335 84fdef00 c070aa87 3e878337  ...5.....p..>..7
 80002a30 84fdba97 233cf4fc 832744fd 8527232a  ....#<...'D..'#*
 80002a40 f4fc8327 44fd1b87 07008547 e3dae7f8  ...'D......G....
 80002a50 833784fd 6385f400 2685eff0 bfe38327  .7..c...&......'
 80002a60 04fd3e85 eff09fe0 011106ec 22e80010  ..>........."...
 80002a70 aa872326 f4fe8327 020c1b87 17009b06  ..#&...'........
 80002a80 07002320 d20c0327 c4fe1377 f70f9306  ..# ...'...w....
 80002a90 0208b697 2380e700 8327c4fe 1b870700  ....#....'......
 80002aa0 a9476309 f7008327 020c3e87 93070004  .Gc....'..>.....
 80002ab0 631ff700 13070208 8327020c be863a86  c........'....:.
 80002ac0 85451305 0004eff0 9fbd2320 020c8147  .E........# ...G
 80002ad0 3e85e260 42640561 82803971 06fc22f8  >..`Bd.a..9q..".
 80002ae0 80002334 a4fc2326 04fe99a8 833784fc  ..#4..#&.....7..
 80002af0 93f7f70f bd8b13f7 f70f8337 84fc93f6  ...........7....
 80002b00 f700a547 63e5d700 93070003 19a09307  ...Gc...........
 80002b10 7005bd46 0326c4fe 919e8126 b99f13f7  p..F.&.....&....
 80002b20 f70f9387 06ffa297 2384e7fe 833784fc  ........#....7..
 80002b30 91832334 f4fc8327 c4fe8527 2326f4fe  ..#4...'...'#&..
 80002b40 8327c4fe 1b870700 bd47e3d1 e7fa2304  .'.......G....#.
 80002b50 04fe9307 84fd3e85 eff0dfd3 0100e270  ......>........p
 80002b60 42742161 82804d71 86e6a2e2 800a233c  Bt!a..Mq......#<
 80002b70 a4ec2338 b4ec2334 c4ec3686 ba863e87  ..#8..#4..6...>.
 80002b80 b2872322 f4ecb687 2320f4ec ba87232e  ..#"....# ....#.
 80002b90 f4ea2326 04fe8367 44ec0337 84ecb376  ..#&...gD..7...v
 80002ba0 f7028327 c4fe1b87 17002326 e4fe1b87  ...'......#&....
 80002bb0 06008a07 c117a297 23ace7ee 836744ec  ........#....gD.
 80002bc0 033784ec 636bf700 836744ec 033784ec  .7..ck...gD..7..
 80002bd0 b357f702 2334f4ec 7dbf0100 09a88327  .W..#4..}......'
 80002be0 c4eb0337 84ed8335 04ed3e85 02978327  ...7...5..>....'
 80002bf0 04ec1b87 f7ff2320 e4ec0327 c4fe0127  ......# ...'...'
 80002c00 e34ff7fc 89a08327 c4fe8a07 c117a297  .O.....'........
 80002c10 03a787ef 8327c4fe 8a07c117 a29783a7  .....'..........
 80002c20 87efbe86 a54763f5 d7009307 700519a0  .....Gc.....p...
 80002c30 93070003 b99f8127 81270337 84ed8335  .......'.'.7...5
 80002c40 04ed3e85 02978327 c4fe1b87 f7ff2326  ..>....'......#&
 80002c50 e4fee34a f0fa0100 0100b660 16647161  ...J.......`.dqa
 80002c60 82800111 22ec0010 2334a4fe ae872322  ...."...#4....#"
 80002c70 f4fe8327 44fe1b87 07008547 63dce700  ...'D......Gc...
 80002c80 833784fe 9c639386 87000337 84fe14e3  .7...c.....7....
 80002c90 9c6315a8 832744fe 812799cb 833784fe  .c...'D..'...7..
 80002ca0 9c639386 87000337 84fe14e3 9c6321a8  .c.....7.....c!.
 80002cb0 833784fe 9c639386 87000337 84fe14e3  .7...c.....7....
 80002cc0 9c438217 81933e85 62640561 82800111  .C....>.bd.a....
 80002cd0 22ec0010 2334a4fe ae872322 f4fe8327  "...#4....#"...'
 80002ce0 44fe1b87 07008547 63dce700 833784fe  D......Gc....7..
 80002cf0 9c639386 87000337 84fe14e3 9c6305a8  .c.....7.....c..
 80002d00 832744fe 812799cb 833784fe 9c639386  .'D..'...7...c..
 80002d10 87000337 84fe14e3 9c6311a8 833784fe  ...7.....c...7..
 80002d20 9c639386 87000337 84fe14e3 9c433e85  .c.....7.....C>.
 80002d30 62640561 82805971 86f4a2f0 a6eccae8  bd.a..Yq........
 80002d40 80182334 a4fa2330 b4fa233c c4f82338  ..#4..#0..#<..#8
 80002d50 d4f831a8 638a0432 833784f9 8507233c  ..1.c..2.7....#<
 80002d60 f4f88337 84fa8335 04fa2685 82978337  ...7...5..&....7
 80002d70 84f983c7 07009b84 07002687 93075002  ..........&...P.
 80002d80 e31af7fc 833784f9 8507233c f4f88337  .....7....#<...7
 80002d90 84f9233c f4fa9307 0002a303 f4fcfd57  ..#<...........W
 80002da0 2326f4fc fd572324 f4fc2328 04fc232a  #&...W#$..#(..#*
 80002db0 04fa8337 84f91387 1700233c e4f883c7  ...7......#<....
 80002dc0 07009b84 07009b86 d4fd1b87 06009307  ................
 80002dd0 500563ee e7289397 06028193 13972700  P.c..(........'.
 80002de0 97170000 93870781 ba979c43 1b870700  ...........C....
 80002df0 97170000 93870780 ba978287 9307d002  ................
 80002e00 a303f4fc 7db79307 0003a303 f4fc55b7  ....}.........U.
 80002e10 232404fc 832784fc 3e87ba87 9b972700  #$...'..>.....'.
 80002e20 b99f9b97 17008127 a59f8127 9b8707fd  .......'...'....
 80002e30 2324f4fc 833784f9 83c70700 9b840700  #$...7..........
 80002e40 26879307 f00263d3 e7042687 93079003  &.....c...&.....
 80002e50 63cee702 833784f9 8507233c f4f85dbf  c....7....#<..].
 80002e60 833704f9 13878700 2338e4f8 9c432324  .7......#8...C#$
 80002e70 f4fc31a8 8327c4fc 8127e3dc 07f22326  ..1..'...'....#&
 80002e80 04fc05bf 8547232a f4fa25b7 01008327  .....G#*..%....'
 80002e90 c4fc8127 e3df07f0 832784fc 2326f4fc  ...'.....'..#&..
 80002ea0 fd572324 f4fc31b7 832704fd 85272328  .W#$..1..'...'#(
 80002eb0 f4fc01b7 833704f9 13878700 2338e4f8  .....7......#8..
 80002ec0 9c430337 84fa8335 04fa3e85 029765aa  .C.7...5..>...e.
 80002ed0 833704f9 13878700 2338e4f8 03b90700  .7......#8......
 80002ee0 63160900 17090000 13094970 8327c4fc  c.........Ip.'..
 80002ef0 8127635a f0068347 74fc13f7 f70f9307  .'cZ...Gt.......
 80002f00 d0026302 f7068324 c4fc8327 84fcbe85  ..c....$...'....
 80002f10 4a85ef00 404aaa87 8127bb87 f4408127  J...@J...'...@.'
 80002f20 2326f4fc 39a88347 74fc8127 033784fa  #&..9..Gt..'.7..
 80002f30 833504fa 3e850297 8327c4fc fd372326  .5..>....'...7#&
 80002f40 f4fc8327 c4fc8127 e34ff0fc 29a88337  ...'...'.O..)..7
 80002f50 84fa8335 04fa2685 82970509 8327c4fc  ...5..&......'..
 80002f60 fd372326 f4fc8347 09009b84 07008dcc  .7#&...G........
 80002f70 832784fc 8127e3cc 07fc8327 84fcfd37  .'...'.....'...7
 80002f80 2324f4fc 832784fc 8127e3d2 07fc29a8  #$...'...'....).
 80002f90 833784fa 833504fa 13050002 82978327  .7...5.........'
 80002fa0 c4fcfd37 2326f4fc 8327c4fc 8127e341  ...7#&...'...'.A
 80002fb0 f0fed1a8 032704fd 930704f9 ba853e85  .....'........>.
 80002fc0 eff0ffd0 aa87233c f4fc8337 84fd63df  ......#<...7..c.
 80002fd0 07008337 84fa8335 04fa1305 d0028297  ...7...5........
 80002fe0 833784fd b307f040 233cf4fc a947232a  .7.....@#<...G#*
 80002ff0 f4fcb9a0 a947232a f4fc0da8 a147232a  .....G#*.....G#*
 80003000 f4fc2da0 85472328 f4fc8337 84fa8335  ..-..G#(...7...5
 80003010 04fa1305 00038297 833784fa 833504fa  .........7...5..
 80003020 13058007 8297c147 232af4fc 032704fd  .......G#*...'..
 80003030 930704f9 ba853e85 eff0bfc2 233ca4fc  ......>.....#<..
 80003040 832644fd 834774fc 81270327 c4fc0336  .&D..Gt..'.'...6
 80003050 84fd8335 04fa0335 84faeff0 dfb025a0  ...5...5......%.
 80003060 833784fa 833504fa 26858297 29a88337  .7...5..&...)..7
 80003070 84fa8335 04fa1305 50028297 833784fb  ...5....P....7..
 80003080 233cf4f8 0100e5b1 0100a670 0674e664  #<.........p.t.d
 80003090 46696561 82805971 06f422f0 0018233c  Fiea..Yq.."...#<
 800030a0 a4fc0ce4 10e814ec 18f01cf4 23380403  ............#8..
 800030b0 233c1403 93070404 2338f4fc 833704fd  #<......#8...7..
 800030c0 938787fc 2334f4fe 833784fe be860336  ....#4...7.....6
 800030d0 84fd8145 17050000 13054599 eff0bfc5  ...E......E.....
 800030e0 81473e85 a2700274 65618280 397122fc  .G>..p.tea..9q".
 800030f0 8000aa87 2338b4fc 232ef4fc 233474fc  ....#8..#...#4t.
 80003100 833704fd 2334f4fe 833784fe 9c630327  .7..#4...7...c.'
 80003110 c4fd1377 f70f2380 e7008337 84fe9c63  ...w..#....7...c
 80003120 13871700 833784fe 98e30100 62742161  .....7......bt!a
 80003130 82806d71 86eda2e9 8011233c a4f22338  ..mq......#<..#8
 80003140 b4f210e0 14e418e8 1cec2330 04032334  ..........#0..#4
 80003150 14039307 04032334 f4f28337 84f2233c  ......#4...7..#<
 80003160 f4fc9307 84f41307 84f49306 703994c3  ............p9..
 80003170 b7b68301 93863628 d4c3b7b6 03019386  ......6(........
 80003180 363894c7 b7860200 93867606 d4c798eb  68........v.....
 80003190 17070000 1307c7f5 98ef0f10 00008337  ...............7
 800031a0 84f32334 f4fe9307 04032334 f4f28337  ..#4......#4...7
 800031b0 84f29387 07fd2330 f4fe0337 04fe9307  ......#0...7....
 800031c0 84f43e85 930784f3 ba860336 04f3be85  ..>........6....
 800031d0 eff07fb6 833784f3 23800700 033784f3  .....7..#....7..
 800031e0 833784fe b307f740 81273e85 ee604e64  .7.....@.'>..`Nd
 800031f0 51618280 5d71a2e4 80082334 a4fc2330  Qa..]q....#4..#0
 80003200 b4fc233c c4fa0337 84fc8337 04fc5d8f  ..#<...7...7..].
 80003210 833784fb d98f9d8b b1e38337 04fc2334  .7.........7..#4
 80003220 f4fe8337 84fc2330 f4fe39a8 033784fe  ...7..#0..9..7..
 80003230 93078700 2334f4fe 833704fe 93868700  ....#4...7......
 80003240 2330d4fe 186398e3 033784fc 833784fb  #0...c...7...7..
 80003250 ba970337 04fee36b f7fc99a0 833704fc  ...7...k.....7..
 80003260 233cf4fc 833784fc 2338f4fc 0da00337  #<...7..#8.....7
 80003270 84fd9307 1700233c f4fc8337 04fd9386  ......#<...7....
 80003280 17002338 d4fc0347 07002380 e7000337  ..#8...G..#....7
 80003290 84fc8337 84fbba97 033704fd e369f7fc  ...7.....7...i..
 800032a0 833784fc 3e852664 61618280 5d71a2e4  .7..>.&daa..]q..
 800032b0 80082334 a4fcae87 233cc4fa 2322f4fc  ..#4....#<..#"..
 800032c0 033784fc 833784fb d98f9d8b bde78327  .7...7.........'
 800032d0 44fc93f7 f70f233c f4fc8337 84fda207  D.....#<...7....
 800032e0 033784fd d98f233c f4fc8337 84fdc207  .7....#<...7....
 800032f0 033784fd d98f233c f4fc8337 84fd8217  .7....#<...7....
 80003300 033784fd d98f233c f4fc8337 84fc2334  .7....#<...7..#4
 80003310 f4fe11a8 833784fe 13878700 2334e4fe  .....7......#4..
 80003320 033784fd 98e30337 84fc8337 84fbba97  .7.....7...7....
 80003330 033784fe e360f7fe 1da88337 84fc2330  .7...`.....7..#0
 80003340 f4fe29a8 833704fe 13871700 2330e4fe  ..)..7......#0..
 80003350 032744fc 1377f70f 2380e700 033784fc  .'D..w..#....7..
 80003360 833784fb ba970337 04fee36d f7fc8337  .7.....7...m...7
 80003370 84fc3e85 26646161 82807971 22f40018  ..>.&daa..yq"...
 80003380 233ca4fc 833784fd 2334f4fe 31a08337  #<...7..#4..1..7
 80003390 84fe8507 2334f4fe 833784fe 83c70700  ....#4...7......
 800033a0 fdf70337 84fe8337 84fdb307 f7403e85  ...7...7.....@>.
 800033b0 22744561 82807971 22f40018 233ca4fc  "tEa..yq"...#<..
 800033c0 2338b4fc 833784fd 2334f4fe 31a08337  #8...7..#4..1..7
 800033d0 84fe8507 2334f4fe 833704fd 1387f7ff  ....#4...7......
 800033e0 2338e4fc 91c78337 84fe83c7 0700e5f3  #8.....7........
 800033f0 033784fe 833784fd b307f740 3e852274  .7...7.....@>."t
 80003400 45618280 797122f4 0018233c a4fc2338  Ea..yq"...#<..#8
 80003410 b4fc8337 84fd1387 1700233c e4fc83c7  ...7......#<....
 80003420 0700a307 f4fe8337 04fd1387 17002338  .......7......#8
 80003430 e4fc83c7 07002307 f4fe8347 f4fe93f7  ......#....G....
 80003440 f70f81cf 8347f4fe 3e878347 e4fe1377  .....G..>..G...w
 80003450 f70f93f7 f70fe30e f7fa8347 f4fe1b87  ...........G....
 80003460 07008347 e4fe8127 bb07f740 81273e85  ...G...'...@.'>.
 80003470 22744561 82807971 22f40018 233ca4fc  "tEa..yq"...#<..
 80003480 2338b4fc 833784fd 2334f4fe 01000337  #8...7..#4.....7
 80003490 04fd9307 17002338 f4fc8337 84fe9386  ......#8...7....
 800034a0 17002334 d4fe0347 07002380 e70083c7  ..#4...G..#.....
 800034b0 0700f1ff 833784fd 3e852274 45618280  .....7..>."tEa..
 800034c0 797122f4 0018233c a4fc2334 04fe2322  yq"...#<..#4..#"
 800034d0 04fe31a0 833784fd 8507233c f4fc8337  ..1..7....#<...7
 800034e0 84fd83c7 07003e87 93070002 e304f7fe  ......>.........
 800034f0 833784fd 83c70700 3e879307 d002630b  .7......>.....c.
 80003500 f7008337 84fd83c7 07003e87 9307b002  ...7......>.....
 80003510 6312f706 833784fd 83c70700 1b870700  c....7..........
 80003520 9307d002 b307f740 93b71700 93f7f70f  .......@........
 80003530 2322f4fe 833784fd 8507233c f4fc1da8  #"...7....#<....
 80003540 033784fe ba878a07 ba978607 2334f4fe  .7..........#4..
 80003550 833784fd 13871700 233ce4fc 83c70700  .7......#<......
 80003560 81279b87 07fd8127 3e878337 84feba97  .'.....'>..7....
 80003570 2334f4fe 833784fd 83c70700 f1f38327  #4...7.........'
 80003580 44fe8127 91c78337 84feb307 f04019a0  D..'...7.....@..
 80003590 833784fe 3e852274 45618280           .7..>."tEa..    
Contents of section .rodata:
 800035a0 73203d20 25640a00 6d637963 6c650000  s = %d..mcycle..
 800035b0 6d696e73 74726574 00000000 00000000  minstret........
 800035c0 496d706c 656d656e 74206d61 696e2829  Implement main()
 800035d0 2c20666f 6f210a00 2573203d 2025640a  , foo!..%s = %d.
 800035e0 00000000 00000000 286e756c 6c290000  ........(null)..
 800035f0 94f8ffff 7efaffff 70faffff 7efaffff  ....~...p...~...
 80003600 7efaffff 7efaffff 7efaffff 70f8ffff  ~...~...~...p...
 80003610 7efaffff 7efaffff 0cf8ffff 84f8ffff  ~...~...........
 80003620 7efaffff 16f8ffff 20f8ffff 20f8ffff  ~....... ... ...
 80003630 20f8ffff 20f8ffff 20f8ffff 20f8ffff   ... ... ... ...
 80003640 20f8ffff 20f8ffff 20f8ffff 7efaffff   ... ... ...~...
 80003650 7efaffff 7efaffff 7efaffff 7efaffff  ~...~...~...~...
 80003660 7efaffff 7efaffff 7efaffff 7efaffff  ~...~...~...~...
 80003670 7efaffff 7efaffff 7efaffff 7efaffff  ~...~...~...~...
 80003680 7efaffff 7efaffff 7efaffff 7efaffff  ~...~...~...~...
 80003690 7efaffff 7efaffff 7efaffff 7efaffff  ~...~...~...~...
 800036a0 7efaffff 7efaffff 7efaffff 7efaffff  ~...~...~...~...
 800036b0 7efaffff 7efaffff 7efaffff 7efaffff  ~...~...~...~...
 800036c0 7efaffff 7efaffff 7efaffff 7efaffff  ~...~...~...~...
 800036d0 7efaffff 7efaffff 7efaffff 7efaffff  ~...~...~...~...
 800036e0 7efaffff 7efaffff 7efaffff 7efaffff  ~...~...~...~...
 800036f0 c4f8ffff c4f9ffff 7efaffff 7efaffff  ........~...~...
 80003700 7efaffff 7efaffff 7efaffff 7efaffff  ~...~...~...~...
 80003710 7efaffff b8f8ffff 7efaffff 7efaffff  ~.......~...~...
 80003720 0cfaffff 14faffff 7efaffff 7efaffff  ........~...~...
 80003730 e0f8ffff 7efaffff 04faffff 7efaffff  ....~.......~...
 80003740 7efaffff 36faffff                    ~...6...        
Contents of section .debug_info:
 0000 b4030000 05000108 00000000 0c000000  ................
 0010 000c0000 00000900 00000020 00800000  ........... ....
 0020 00008403 00000000 00000000 00000201  ................
 0030 06f30000 00020108 f1000000 0202053f  ...............?
 0040 01000002 02070d01 00000d04 05696e74  .............int
 0050 000a4a00 00000651 00000006 4a000000  ..J....Q....J...
 0060 0204072b 02000002 0805c502 00000749  ...+...........I
 0070 01000003 69197a00 00000208 07260200  ....i.z......&..
 0080 0007dc00 000003e8 1a7a0000 00074b01  .........z....K.
 0090 0000043c 146e0000 0007de00 00000452  ...<.n.........R
 00a0 15810000 000e2603 00000207 0c4a0000  ......&......J..
 00b0 00bc0000 000fbc00 00001000 03c80000  ................
 00c0 00020108 fa000000 06c10000 00113501  ..............5.
 00d0 0000021e 054a0000 00382300 80000000  .....J...8#.....
 00e0 004c0000 00000000 00019c0c 01000001  .L..............
 00f0 7300021f 090c0100 00029168 09040100  s..........h....
 0100 00021f0f 0c010000 02916000 124a0000  ..........`..J..
 0110 001c0100 00137a00 00000000 1473756d  ......z......sum
 0120 00020906 67000000 1a230080 00000000  ....g....#......
 0130 1e000000 00000000 019c5901 0000044e  ..........Y....N
 0140 0002090f 67000000 02915801 61000211  ....g.....X.a...
 0150 084a0000 0002916c 0008e800 00004612  .J.....l......F.
 0160 99000000 f2220080 00000000 28000000  ....."......(...
 0170 00000000 019c8901 00000470 63000146  ...........pc..F
 0180 25990000 00029168 0008ff00 00004011  %......h......@.
 0190 8d000000 bc220080 00000000 36000000  ....."......6...
 01a0 00000000 019cc701 00000478 0001401f  ...........x..@.
 01b0 8d000000 02915801 62697400 01420c8d  ......X.bit..B..
 01c0 00000002 91680015 ce000000 012c2732  .....h.......,'2
 01d0 22008000 0000008a 00000000 00000001  "...............
 01e0 9c2c0200 00052001 00002c33 4a000000  .,.... ...,3J...
 01f0 02916c09 5a010000 012e1751 00000009  ..l.Z......Q....
 0200 034c3700 80000000 0009d600 0000012f  .L7............/
 0210 17510000 00090348 37008000 00000016  .Q.....H7.......
 0220 54010000 0130174a 00000000 08600100  T....0.J.....`..
 0230 001c0c4a 0000000e 21008000 00000024  ...J....!......$
 0240 01000000 00000001 9cef0200 00046e00  ..............n.
 0250 011c1d4a 00000003 91bc7f05 3a010000  ...J........:...
 0260 1c37ef02 00000391 b07f0527 0100001c  .7.........'....
 0270 4b050300 000391a8 7f016900 011e074a  K.........i....J
 0280 00000002 916c0b28 21008000 0000009e  .....l.(!.......
 0290 00000000 00000001 74300001 220cf402  ........t0.."...
 02a0 00000291 60017431 0001221a f4020000  ....`.t1..".....
 02b0 02915801 76300001 230cf402 00000291  ..X.v0..#.......
 02c0 50017631 0001231c f4020000 02914801  P.v1..#.......H.
 02d0 65713100 0124094a 00000002 91440165  eq1..$.J.....D.e
 02e0 71320001 24194a00 00000291 40000003  q2..$.J.....@...
 02f0 00030000 0208042e 01000006 f4020000  ................
 0300 0afb0200 0003fb02 00000827 0100000c  ...........'....
 0310 0c4a0000 00002000 80000000 000e0100  .J.... .........
 0320 00000000 00019cad 03000004 6e00010c  ............n...
 0330 174a0000 0002914c 053a0100 000c2ead  .J.....L.:......
 0340 03000002 91400527 0100000c 3fb20300  .....@.'....?...
 0350 000391b8 7f016900 010e074a 00000002  ......i....J....
 0360 916c0b1a 20008000 00000084 00000000  .l.. ...........
 0370 00000001 74300001 12094a00 00000291  ....t0....J.....
 0380 68017431 00011217 4a000000 02916401  h.t1....J.....d.
 0390 76300001 13094a00 00000291 60017631  v0....J.....`.v1
 03a0 00011319 4a000000 02915c00 00035600  ....J.....\...V.
 03b0 0000035b 00000000 25000000 05000108  ...[....%.......
 03c0 52010000 01c70300 00000000 80000000  R...............
 03d0 00c6036d 01000073 0100009e 01000001  ...m...s........
 03e0 80790e00 00050001 08660100 001d0000  .y.......f......
 03f0 00000cd0 00000009 00000084 23008000  ............#...
 0400 00000018 12000000 000000cf 07000008  ................
 0410 0106f300 00000801 08f10000 00080205  ................
 0420 3f010000 0802070d 0100001e 0405696e  ?.............in
 0430 7400134a 0000000f 51000000 0f4a0000  t..J....Q....J..
 0440 00080407 2b020000 080805c5 0200000a  ....+...........
 0450 49010000 0469197a 00000008 08072602  I....i.z......&.
 0460 00000adc 00000004 e81a7a00 00000a4b  ..........z....K
 0470 01000005 3c146e00 0000138d 0000000a  ....<.n.........
 0480 de000000 05521581 0000000f 9e000000  .....R..........
 0490 0a590200 0006d117 7a000000 080805c0  .Y......z.......
 04a0 0200001f 082008cc 03000007 cf000000  ..... ..........
 04b0 080108fa 0000000f cf000000 07d60000  ................
 04c0 00080807 21020000 0a450200 0007281b  ....!....E....(.
 04d0 c4000000 0a4c0200 00076318 e7000000  .....L....c.....
 04e0 10780300 000f1a99 00000010 b6030000  .x..............
 04f0 101a9900 00000c9e 00000025 0100000d  ...........%....
 0500 7a000000 01000381 02000002 25121501  z...........%...
 0510 00000903 50370080 00000000 0cca0000  ....P7..........
 0520 004b0100 000d7a00 00000100 035b0300  .K....z......[..
 0530 0002260e 3b010000 09036037 00800000  ..&.;.....`7....
 0540 000021de 03000002 c2010667 000000c0  ..!........g....
 0550 34008000 000000dc 00000000 00000001  4...............
 0560 9cb20100 00057374 7200c201 17db0000  ......str.......
 0570 00029158 06726573 00c40108 67000000  ...X.res....g...
 0580 02916814 60020000 c501074a 00000002  ..h.`......J....
 0590 9164000e 0c020000 2608ca00 00007634  .d......&.....v4
 05a0 00800000 00004a00 00000000 0000019c  ......J.........
 05b0 ff010000 11f50300 00ba0114 ca000000  ................
 05c0 02915805 73726300 ba0126db 00000002  ..X.src...&.....
 05d0 91500664 00bc0109 ca000000 02916800  .P.d..........h.
 05e0 0ead0200 0024064a 00000004 34008000  .....$.J....4...
 05f0 00000072 00000000 00000001 9c590200  ...r.........Y..
 0600 00057331 00ae0118 db000000 02915805  ..s1..........X.
 0610 733200ae 0128db00 00000291 50066331  s2...(......P.c1
 0620 00b00111 35000000 02916f06 633200b0  ....5.....o.c2..
 0630 01153500 00000291 6e000eb1 01000077  ..5.....n......w
 0640 09af0000 00b63300 80000000 004e0000  ......3......N..
 0650 00000000 00019ca2 02000005 7300a601  ............s...
 0660 1cdb0000 00029158 056e00a6 0126af00  .......X.n...&..
 0670 00000291 50067000 a8010fdb 00000002  ....P.p.........
 0680 9168000e aa010000 2909af00 00007a33  .h......).....z3
 0690 00800000 00003c00 00000000 0000019c  ......<.........
 06a0 de020000 0573009e 011bdb00 00000291  .....s..........
 06b0 58067000 a0010fdb 00000002 9168000e  X.p..........h..
 06c0 d3020000 2109c200 0000ac32 00800000  ....!......2....
 06d0 0000ce00 00000000 0000019c 7f030000  ................
 06e0 11f50300 008b0114 c2000000 02914811  ..............H.
 06f0 92030000 8b011e4a 00000002 9144056c  .......J.....D.l
 0700 656e008b 012baf00 00000391 b87f15ce  en...+..........
 0710 32008000 0000006c 00000000 0000005f  2......l......._
 0720 03000014 69030000 8e010f9e 00000002  ....i...........
 0730 91580664 00930110 7f030000 02916800  .X.d..........h.
 0740 093a3300 80000000 00340000 00000000  .:3......4......
 0750 00066400 97010bca 00000002 91600000  ..d..........`..
 0760 079e0000 000ebf03 00001f09 c2000000  ................
 0770 f4310080 00000000 b8000000 00000000  .1..............
 0780 019c3004 000011f5 0300007b 0114c200  ..0........{....
 0790 00000291 48057372 63007b01 26300400  ....H.src.{.&0..
 07a0 00029140 056c656e 007b0132 af000000  ...@.len.{.2....
 07b0 0391b87f 151a3200 80000000 00420000  ......2......B..
 07c0 00000000 00030400 00067300 7e011636  ..........s.~..6
 07d0 04000002 91680664 007f0110 7f030000  .....h.d........
 07e0 02916000 095c3200 80000000 00440000  ..`..\2......D..
 07f0 00000000 00067300 830111db 00000002  ......s.........
 0800 91580664 0084010b ca000000 02915000  .X.d..........P.
 0810 00073504 00002207 aa000000 12250300  ..5..."......%..
 0820 0003f405 4a000000 32310080 00000000  ....J...21......
 0830 c2000000 00000000 019cee04 00000573  ...............s
 0840 74720067 0113ca00 00000391 887e0566  tr.g.........~.f
 0850 6d740067 0124db00 00000391 807e1806  mt.g.$.......~..
 0860 61700069 010bf300 00000391 b07f147c  ap.i...........|
 0870 0200006a 0109ca00 00000391 b87f2384  ...j..........#.
 0880 03000002 6d0108ec 30008000 00000046  ....m...0......F
 0890 00000000 00000001 9c079148 06239001  ...........H.#..
 08a0 06056368 006d011a 4a000000 02915c11  ..ch.m..J.....\.
 08b0 a8020000 6d0125ee 04000002 915014ce  ....m.%......P..
 08c0 0200006f 010cf304 00000291 68000007  ...o........h...
 08d0 c2000000 07ca0000 00122603 000003c8  ..........&.....
 08e0 054a0000 00963000 80000000 00560000  .J....0......V..
 08f0 00000000 00019c3b 05000005 666d7400  .......;....fmt.
 0900 5c0118db 00000003 91987f18 06617000  \............ap.
 0910 5e010bf3 00000003 91a87f00 19fa0300  ^...............
 0920 00c50d36 2d008000 00000060 03000000  ...6-......`....
 0930 00000001 9c740600 00018c03 000002c5  .....t..........
 0940 1e840600 000391a8 7f010e03 000002c5  ................
 0950 3aee0400 000391a0 7f04666d 740002c5  :.........fmt...
 0960 4edb0000 00039198 7f046170 0002c55b  N.........ap...[
 0970 f3000000 0391907f 02700002 c718db00  .........p......
 0980 00000162 038f0200 0002c80f db000000  ...b............
 0990 0391b87f 02636800 02c9104a 00000001  .....ch....J....
 09a0 59246572 720002c9 144a0000 00026e75  Y$err....J....nu
 09b0 6d0002ca 16e00000 00029158 03130200  m..........X....
 09c0 0002cb07 4a000000 02915403 b4020000  ....J.....T.....
 09d0 02cb0d4a 00000002 91500365 02000002  ...J.....P.e....
 09e0 cb144a00 00000291 4c03c101 000002cb  ..J.....L.......
 09f0 1b4a0000 00029148 033a0300 0002cb26  .J.....H.:.....&
 0a00 4a000000 0391b47f 03540200 0002cc08  J........T......
 0a10 cf000000 02914725 9f020000 02de03b2  ......G%........
 0a20 2d008000 00000016 b9010000 0a018e2e  -...............
 0a30 00800000 00001600 0300004a 01403000  ...........J.@0.
 0a40 80000000 0016fe02 00004801 2c300080  ..........H.,0..
 0a50 00000000 00268406 00001a4a 0000001a  .....&.....J....
 0a60 ee040000 00077406 00000bf7 02000002  ......t.........
 0a70 bb12bb00 0000ce2c 00800000 00006800  .......,......h.
 0a80 00000000 0000019c c9060000 04617000  .............ap.
 0a90 02bb22c9 06000002 916801b4 02000002  .."......h......
 0aa0 bb2a4a00 00000291 640007f3 0000000b  .*J.....d.......
 0ab0 e1010000 02b11be0 00000062 2c008000  ...........b,...
 0ac0 0000006c 00000000 00000001 9c0e0700  ...l............
 0ad0 00046170 0002b12c c9060000 02916801  ..ap...,......h.
 0ae0 b4020000 02b1344a 00000002 91640019  ......4J.....d..
 0af0 18020000 9c14662b 00800000 0000fc00  ......f+........
 0b00 00000000 0000019c ab070000 018c0300  ................
 0b10 00029c24 84060000 0391d87d 010e0300  ...$.......}....
 0b20 00029c40 ee040000 0391d07d 046e756d  ...@.......}.num
 0b30 00029d28 e0000000 0391c87d 01130200  ...(.......}....
 0b40 00029d36 60000000 0391c47d 01650200  ...6`......}.e..
 0b50 00029d40 4a000000 0391c07d 01540200  ...@J......}.T..
 0b60 00029d4b 4a000000 0391bc7d 037f0300  ...KJ......}....
 0b70 00029f0c ab070000 0391e87d 02706f73  ...........}.pos
 0b80 0002a007 4a000000 02916c00 0c600000  ....J.....l..`..
 0b90 00bb0700 000d7a00 00003f00 17970300  ......z...?.....
 0ba0 008eda2a 00800000 00008c00 00000000  ...*............
 0bb0 0000019c 01080000 04780002 8e188d00  .........x......
 0bc0 00000291 48027374 72000290 08010800  ....H.str.......
 0bd0 00029158 02690002 91074a00 00000291  ...X.i....J.....
 0be0 6c000ccf 00000011 0800000d 7a000000  l...........z...
 0bf0 100012e9 01000003 dc054a00 0000682a  ..........J...h*
 0c00 00800000 00007200 00000000 0000019c  ......r.........
 0c10 5a080000 04636800 027e114a 00000002  Z....ch..~.J....
 0c20 916c2762 75660002 80185a08 0000401b  .l'buf....Z...@.
 0c30 98020000 02814a00 0000000c cf000000  ......J.........
 0c40 6a080000 0d7a0000 003f0017 e9020000  j....z...?......
 0c50 6a822900 80000000 00e60000 00000000  j.).............
 0c60 00019cf3 08000004 63696400 026a104a  ........cid..j.J
 0c70 00000003 91dc7e04 6e630002 6a194a00  ......~.nc..j.J.
 0c80 00000391 d87e0272 65740002 70074a00  .....~.ret..p.J.
 0c90 00000291 50286275 66000272 085a0800  ....P(buf..r.Z..
 0ca0 00400279 00037702 00000273 09ca0000  .@.y..w....s....
 0cb0 00029158 09da2900 80000000 00760000  ...X..)......v..
 0cc0 00000000 00026900 02740c4a 00000002  ......i..t.J....
 0cd0 91540000 29ec0300 0002600d 1c290080  .T..).....`..)..
 0ce0 00000000 66000000 00000000 019c5f09  ....f........._.
 0cf0 0000034c 03000002 6212c200 00000154  ...L....b......T
 0d00 102d0300 00630fcf 00000010 d6010000  .-...c..........
 0d10 631dcf00 0000106e 03000063 29cf0000  c......n...c)...
 0d20 0003cb01 00000264 0aaf0000 00029168  .......d.......h
 0d30 03420300 0002660a af000000 02916000  .B....f.......`.
 0d40 12350100 0002591b 4a000000 f2280080  .5....Y.J....(..
 0d50 00000000 2a000000 00000000 019ca009  ....*...........
 0d60 00000115 03000002 59244a00 00000291  ........Y$J.....
 0d70 6c012003 00000259 31f30400 00029160  l. ....Y1......`
 0d80 001cff01 0000521c ca280080 00000000  ......R..(......
 0d90 28000000 00000000 019cdb09 00000463  (..............c
 0da0 69640002 522d4a00 00000291 6c046e63  id..R-J.....l.nc
 0db0 00025236 4a000000 02916800 17f60100  ..R6J.....h.....
 0dc0 004d9428 00800000 00003600 00000000  .M.(......6.....
 0dd0 0000019c 050a0000 04730002 4d1bdb00  .........s..M...
 0de0 00000291 58002a3f 02000002 48068428  ....X.*?....H..(
 0df0 00800000 00001000 00000000 0000019c  ................
 0e00 2b720200 00024306 6c280080 00000000  +r....C.l(......
 0e10 18000000 00000000 019c4d0a 0000018a  ..........M.....
 0e20 02000002 430f4a00 00000291 6c0012aa  ....C.J.....l...
 0e30 03000002 3e219e00 00005028 00800000  ....>!....P(....
 0e40 00001c00 00000000 0000019c 9d0a0000  ................
 0e50 01ba0200 00023e37 9e000000 02916804  ......>7......h.
 0e60 65706300 023e489e 00000002 916001f1  epc..>H......`..
 0e70 01000002 3e577f03 00000291 58002c6b  ....>W......X.,k
 0e80 02000002 38203028 00800000 00002000  ....8 0(...... .
 0e90 00000000 0000019c cb0a0000 018a0200  ................
 0ea0 00023836 9e000000 02916800 1ce30300  ..86......h.....
 0eb0 0028061c 27008000 00000014 01000000  .(..'...........
 0ec0 00000001 9c8e0b00 00013802 00000228  ..........8....(
 0ed0 134a0000 000391bc 7f026900 022a074a  .J........i..*.J
 0ee0 00000002 915c152c 27008000 0000007e  .....\.,'......~
 0ef0 00000000 0000004b 0b000002 63737200  .......K....csr.
 0f00 0232039e 00000002 9168093c 27008000  .2.......h.<'...
 0f10 0000000c 00000000 00000003 c6030000  ................
 0f20 0232037a 00000002 91500000 09aa2700  .2.z.....P....'.
 0f30 80000000 007e0000 00000000 00026373  .....~........cs
 0f40 72000233 039e0000 00029160 09ba2700  r..3.......`..'.
 0f50 80000000 000c0000 00000000 0003c603  ................
 0f60 00000233 037a0000 00029148 0000000b  ...3.z.....H....
 0f70 ef020000 0212129e 0000009e 26008000  ............&...
 0f80 0000007e 00000000 00000001 9c010c00  ...~............
 0f90 00011a03 00000212 249e0000 000391f8  ........$.......
 0fa0 7e01da02 00000212 348d0000 000391f0  ~.......4.......
 0fb0 7e01df02 00000212 438d0000 000391e8  ~.......C.......
 0fc0 7e01e402 00000212 528d0000 000391e0  ~.......R.......
 0fd0 7e2da003 00000214 15110c00 0040027f  ~-...........@..
 0fe0 00000c99 00000011 0c00000d 7a000000  ............z...
 0ff0 07001301 0c00000b e8000000 0146129e  .............F..
 1000 00000076 26008000 00000028 00000000  ...v&......(....
 1010 00000001 9c470c00 00047063 00014625  .....G....pc..F%
 1020 9e000000 02916800 0bff0000 00014011  ......h.......@.
 1030 8d000000 40260080 00000000 36000000  ....@&......6...
 1040 00000000 019c860c 00000478 0001401f  ...........x..@.
 1050 8d000000 02915802 62697400 01420c8d  ......X.bit..B..
 1060 00000002 9168002e ce000000 012c27b6  .....h.......,'.
 1070 25008000 0000008a 00000000 00000001  %...............
 1080 9ceb0c00 00012001 0000012c 334a0000  ...... ....,3J..
 1090 0002916c 035a0100 00012e17 51000000  ...l.Z......Q...
 10a0 09037437 00800000 000003d6 00000001  ..t7............
 10b0 2f175100 00000903 70370080 00000000  /.Q.....p7......
 10c0 1b540100 0001304a 00000000 0b600100  .T....0J.....`..
 10d0 00011c0c 4a000000 92240080 00000000  ....J....$......
 10e0 24010000 00000000 019cb10d 0000046e  $..............n
 10f0 00011c1d 4a000000 0391bc7f 013a0100  ....J........:..
 1100 00011c37 b10d0000 0391b07f 01270100  ...7.........'..
 1110 00011c4b c70d0000 0391a87f 02690001  ...K.........i..
 1120 1e074a00 00000291 6c09ac24 00800000  ..J.....l..$....
 1130 00009e00 00000000 00000274 30000122  ...........t0.."
 1140 0cb60d00 00029160 02743100 01221ab6  .......`.t1.."..
 1150 0d000002 91580276 30000123 0cb60d00  .....X.v0..#....
 1160 00029150 02763100 01231cb6 0d000002  ...P.v1..#......
 1170 91480265 71310001 24094a00 00000291  .H.eq1..$.J.....
 1180 44026571 32000124 194a0000 00029140  D.eq2..$.J.....@
 1190 000007c2 0d000008 08042e01 00000fb6  ................
 11a0 0d000013 bd0d0000 07bd0d00 000b2701  ..............'.
 11b0 0000010c 0c4a0000 00842300 80000000  .....J....#.....
 11c0 000e0100 00000000 00019c72 0e000004  ...........r....
 11d0 6e00010c 174a0000 0002914c 013a0100  n....J.....L.:..
 11e0 00010c2e 720e0000 02914001 27010000  ....r.....@.'...
 11f0 010c3f77 0e000003 91b87f02 6900010e  ..?w........i...
 1200 074a0000 0002916c 099e2300 80000000  .J.....l..#.....
 1210 00840000 00000000 00027430 00011209  ..........t0....
 1220 4a000000 02916802 74310001 12174a00  J.....h.t1....J.
 1230 00000291 64027630 00011309 4a000000  ....d.v0....J...
 1240 02916002 76310001 13194a00 00000291  ..`.v1....J.....
 1250 5c000007 56000000 075b0000 0000      \...V....[....  
Contents of section .debug_abbrev:
 0000 01340003 083a0b3b 0b390b49 13021800  .4...:.;.9.I....
 0010 00022400 0b0b3e0b 030e0000 030f000b  ..$...>.........
 0020 21084913 00000405 0003083a 0b3b0b39  !.I........:.;.9
 0030 0b491302 18000005 0500030e 3a21013b  .I..........:!.;
 0040 0b390b49 13021800 00062600 49130000  .9.I......&.I...
 0050 07160003 0e3a0b3b 0b390b49 13000008  .....:.;.9.I....
 0060 2e01030e 3a21013b 0b390b27 19491311  ....:!.;.9.'.I..
 0070 01120740 187a1901 13000009 3400030e  ...@.z......4...
 0080 3a0b3b0b 390b4913 02180000 0a350049  :.;.9.I......5.I
 0090 1300000b 0b011101 12070000 0c110125  ...............%
 00a0 0e130b03 1f1b1f11 01120710 1700000d  ................
 00b0 24000b0b 3e0b0308 00000e2e 013f1903  $...>........?..
 00c0 0e3a0b3b 0b390b27 1949133c 19011300  .:.;.9.'.I.<....
 00d0 000f0500 49130000 10180000 00112e01  ....I...........
 00e0 3f19030e 3a0b3b0b 390b2719 49131101  ?...:.;.9.'.I...
 00f0 12074018 7c190113 00001201 01491301  ..@.|........I..
 0100 13000013 21004913 2f0b0000 142e013f  ....!.I./......?
 0110 1903083a 0b3b0b39 0b271949 13110112  ...:.;.9.'.I....
 0120 0740187a 19011300 00152e01 030e3a0b  .@.z..........:.
 0130 3b0b390b 27191101 12074018 7a190113  ;.9.'.....@.z...
 0140 00001634 00030e3a 0b3b0b39 0b491300  ...4...:.;.9.I..
 0150 00000111 00101711 01120f03 0e1b0e25  ...............%
 0160 0e130500 00000105 00030e3a 0b3b0b39  ...........:.;.9
 0170 0b491302 18000002 34000308 3a0b3b0b  .I......4...:.;.
 0180 390b4913 02180000 03340003 0e3a0b3b  9.I......4...:.;
 0190 0b390b49 13021800 00040500 03083a0b  .9.I..........:.
 01a0 3b0b390b 49130218 00000505 0003083a  ;.9.I..........:
 01b0 21023b05 390b4913 02180000 06340003  !.;.9.I......4..
 01c0 083a2102 3b05390b 49130218 0000070f  .:!.;.9.I.......
 01d0 000b2108 49130000 0824000b 0b3e0b03  ..!.I....$...>..
 01e0 0e000009 0b011101 12070000 0a160003  ................
 01f0 0e3a0b3b 0b390b49 1300000b 2e01030e  .:.;.9.I........
 0200 3a0b3b0b 390b2719 49131101 12074018  :.;.9.'.I.....@.
 0210 7a190113 00000c01 01491301 1300000d  z........I......
 0220 21004913 2f0b0000 0e2e013f 19030e3a  !.I./......?...:
 0230 21083b0b 390b2719 49131101 12074018  !.;.9.'.I.....@.
 0240 7a190113 00000f26 00491300 00103400  z......&.I....4.
 0250 030e3a21 023b0b39 0b49133f 193c1900  ..:!.;.9.I.?.<..
 0260 00110500 030e3a21 023b0539 0b491302  ......:!.;.9.I..
 0270 18000012 2e013f19 030e3a0b 3b0b390b  ......?...:.;.9.
 0280 27194913 11011207 40187c19 01130000  '.I.....@.|.....
 0290 13350049 13000014 3400030e 3a21023b  .5.I....4...:!.;
 02a0 05390b49 13021800 00150b01 11011207  .9.I............
 02b0 01130000 160a0003 0e3a2102 3b053921  .........:!.;.9!
 02c0 05110100 00172e01 3f19030e 3a21023b  ........?...:!.;
 02d0 0b392106 27191101 12074018 7c190113  .9!.'.....@.|...
 02e0 00001818 00000019 2e01030e 3a21023b  ............:!.;
 02f0 0b390b27 19110112 0740187c 19011300  .9.'.....@.|....
 0300 001a0500 49130000 1b340003 0e3a0b3b  ....I....4...:.;
 0310 0b392117 49130000 1c2e013f 19030e3a  .9!.I......?...:
 0320 21023b0b 390b2719 11011207 40187a19  !.;.9.'.....@.z.
 0330 01130000 1d110125 0e130b03 1f1b1f11  .......%........
 0340 01120710 1700001e 24000b0b 3e0b0308  ........$...>...
 0350 00001f0f 000b0b00 00200f00 0b0b030e  ......... ......
 0360 0000212e 013f1903 0e3a0b3b 05390b27  ..!..?...:.;.9.'
 0370 19491311 01120740 187a1901 13000022  .I.....@.z....."
 0380 26000000 232e0103 0e3a0b3b 05390b27  &...#....:.;.9.'
 0390 19110112 07401848 187a1900 00243400  .....@.H.z...$4.
 03a0 03083a0b 3b0b390b 49130000 250a0003  ..:.;.9.I...%...
 03b0 0e3a0b3b 0b390b11 01000026 15012719  .:.;.9.....&..'.
 03c0 01130000 27340003 083a0b3b 0b390b49  ....'4...:.;.9.I
 03d0 1388010b 00002834 0003083a 0b3b0b39  ......(4...:.;.9
 03e0 0b491388 010b0218 0000292e 01030e3a  .I........)....:
 03f0 0b3b0b39 0b110112 0740187c 19011300  .;.9.....@.|....
 0400 002a2e00 3f19030e 3a0b3b0b 390b1101  .*..?...:.;.9...
 0410 12074018 7c190000 2b2e013f 19030e3a  ..@.|...+..?...:
 0420 0b3b0b39 0b271987 01191101 12074018  .;.9.'........@.
 0430 7c190113 00002c2e 013f1903 0e3a0b3b  |.....,..?...:.;
 0440 0b390b27 19870119 11011207 40187a19  .9.'........@.z.
 0450 01130000 2d340003 0e3a0b3b 0b390b49  ....-4...:.;.9.I
 0460 1388010b 02180000 2e2e0103 0e3a0b3b  .............:.;
 0470 0b390b27 19110112 0740187a 19011300  .9.'.....@.z....
 0480 0000                                 ..              
Contents of section .debug_aranges:
 0000 2c000000 02000000 00000800 00000000  ,...............
 0010 00200080 00000000 84030000 00000000  . ..............
 0020 00000000 00000000 00000000 00000000  ................
 0030 2c000000 0200b803 00000800 00000000  ,...............
 0040 00000080 00000000 c0010000 00000000  ................
 0050 00000000 00000000 00000000 00000000  ................
 0060 2c000000 0200e103 00000800 00000000  ,...............
 0070 84230080 00000000 18120000 00000000  .#..............
 0080 00000000 00000000 00000000 00000000  ................
Contents of section .debug_line:
 0000 c3030000 05000800 45000000 010101fb  ........E.......
 0010 0e0d0001 01010100 00000100 00010101  ................
 0020 1f040900 00003400 00003e00 00007500  ......4...>...u.
 0030 00000201 1f020f05 00000000 00a80000  ................
 0040 00010000 000000af 00000002 c0000000  ................
 0050 03050100 09020020 00800000 0000030c  ....... ........
 0060 01050a03 03091400 01050303 00090400  ................
 0070 01051203 02090200 01050903 00090c00  ................
 0080 01052003 00090600 01051703 00090e00  .. .............
 0090 01051403 01090600 01050903 00090c00  ................
 00a0 01052403 00090600 01051903 00090e00  ..$.............
 00b0 01050803 01090600 01051b00 02040103  ................
 00c0 00091200 01050803 01090a00 01051b00  ................
 00d0 02040103 00091200 01000204 02037b09  ..............{.
 00e0 0a000105 14000204 01030009 0a000105  ................
 00f0 16000204 01030009 10000105 11000204  ................
 0100 01030009 08000105 0d030709 0a000105  ................
 0110 06030009 08000105 19000204 01030009  ................
 0120 02000105 28000204 01030009 14000105  ....(...........
 0130 1f000204 01030009 0e000105 12000204  ................
 0140 01030009 02000105 0c030109 06000105  ................
 0150 0a030109 06000105 01030109 02000103  ................
 0160 03090800 01050a03 03091400 01050303  ................
 0170 00090400 01051503 02090200 01050c03  ................
 0180 00090c00 01052303 00090600 01051a03  ......#.........
 0190 00090e00 01051703 01090600 01050c03  ................
 01a0 00090c00 01052703 00090600 01051c03  ......'.........
 01b0 00090e00 01051203 01090600 01050903  ................
 01c0 00091400 01052203 00090400 01051903  ......".........
 01d0 00091400 01050f03 01090400 01050803  ................
 01e0 00090e00 01051f00 02040103 00090200  ................
 01f0 01052100 02040103 00090800 01051b00  ..!.............
 0200 02040203 7b090a00 01051400 02040103  ....{...........
 0210 00090a00 01051600 02040103 00091000  ................
 0220 01051100 02040103 00090800 01050d03  ................
 0230 07090a00 01050603 00090800 01051900  ................
 0240 02040103 00090200 01052800 02040103  ..........(.....
 0250 00091000 01051200 02040103 00091000  ................
 0260 01050c03 01090600 01050a03 01090600  ................
 0270 01050103 01090200 01030309 08000105  ................
 0280 03030509 0c000105 11030209 04000105  ................
 0290 0f030009 10000105 07030109 04000105  ................
 02a0 30030009 1a000105 06030009 08000105  0...............
 02b0 0b030209 04000103 01090c00 01050d03  ................
 02c0 02091000 01051400 02040103 00090200  ................
 02d0 01050303 03091600 01050103 01090400  ................
 02e0 01030309 08000105 1a030109 0a000105  ................
 02f0 15030009 08000105 0c030009 06000105  ................
 0300 0d030109 06000105 1a030009 08000105  ................
 0310 13030009 06000105 01030109 02000103  ................
 0320 03090800 01050c03 01090a00 01050b03  ................
 0330 00090400 01052003 00090400 01052903  ...... .......).
 0340 00090600 01000204 01060300 09020001  ................
 0350 00020402 03000904 00010501 00020405  ................
 0360 06030109 02000104 02051203 40090800  ............@...
 0370 01050403 0a090a00 01050b03 08090800  ................
 0380 01050103 01090400 01051003 02090800  ................
 0390 01050c03 02090800 01050a03 00090800  ................
 03a0 01050503 01090600 01051103 01091200  ................
 03b0 01050c03 01090600 01050103 01091400  ................
 03c0 01090a00 00010104 04000005 0008002e  ................
 03d0 00000001 0101fb0e 0d000101 01010000  ................
 03e0 00010000 0101011f 02340000 00340000  .........4...4..
 03f0 0002011f 020f02ca 00000000 ca000000  ................
 0400 01000902 00000080 00000000 03110103  ................
 0410 01090200 01030109 02000103 01090200  ................
 0420 01030109 02000103 01090200 01030109  ................
 0430 02000103 01090200 01030109 02000103  ................
 0440 01090200 01030109 02000103 01090200  ................
 0450 01030109 02000103 01090200 01030109  ................
 0460 02000103 01090200 01030109 02000103  ................
 0470 01090200 01030109 02000103 01090200  ................
 0480 01030109 02000103 01090200 01030109  ................
 0490 02000103 01090200 01030109 02000103  ................
 04a0 01090200 01030109 02000103 01090200  ................
 04b0 01030109 02000103 01090200 01030109  ................
 04c0 02000103 03090200 01030109 02000103  ................
 04d0 03090400 01030109 02000103 02090200  ................
 04e0 01030509 04000103 01090200 01030109  ................
 04f0 08000103 05090200 01030109 08000103  ................
 0500 02090400 01030109 04000103 01090400  ................
 0510 01030109 04000103 01090400 01030109  ................
 0520 04000103 01090400 01030109 04000103  ................
 0530 01090400 01030109 04000103 01090400  ................
 0540 01030109 04000103 01090400 01030109  ................
 0550 04000103 01090400 01030109 04000103  ................
 0560 01090400 01030109 04000103 01090400  ................
 0570 01030109 04000103 01090400 01030109  ................
 0580 04000103 01090400 01030109 04000103  ................
 0590 01090400 01030109 04000103 01090400  ................
 05a0 01030109 04000103 01090400 01030109  ................
 05b0 04000103 01090400 01030109 04000103  ................
 05c0 01090400 01030509 04000103 01090800  ................
 05d0 01030509 04000103 03090800 01030109  ................
 05e0 04000103 03090400 01030209 04000103  ................
 05f0 01090200 01030409 04000103 01090400  ................
 0600 01030109 02000103 01090200 01030109  ................
 0610 04000103 02090200 01030409 04000103  ................
 0620 02090200 01030109 02000103 01090200  ................
 0630 01030109 02000103 01090200 01030109  ................
 0640 02000103 01090200 01030109 02000103  ................
 0650 01090200 01030109 02000103 01090200  ................
 0660 01030109 02000103 01090200 01030109  ................
 0670 02000103 01090200 01030109 02000103  ................
 0680 01090200 01030109 02000103 01090200  ................
 0690 01030109 02000103 01090200 01030109  ................
 06a0 02000103 01090200 01030109 02000103  ................
 06b0 01090200 01030109 02000103 01090200  ................
 06c0 01030109 02000103 01090200 01030109  ................
 06d0 02000103 01090200 01030209 02000103  ................
 06e0 01090400 01030109 04000103 01090200  ................
 06f0 01030109 04000103 03090400 01030109  ................
 0700 06000103 02090400 01030109 02000103  ................
 0710 01090200 01030109 02000103 01090200  ................
 0720 01030109 02000103 01090200 01030109  ................
 0730 02000103 01090200 01030109 02000103  ................
 0740 01090200 01030109 02000103 01090200  ................
 0750 01030109 02000103 01090200 01030109  ................
 0760 02000103 01090200 01030109 02000103  ................
 0770 01090200 01030109 02000103 01090200  ................
 0780 01030109 02000103 01090200 01030109  ................
 0790 02000103 01090200 01030109 02000103  ................
 07a0 01090200 01030109 02000103 01090200  ................
 07b0 01030109 02000103 01090200 01030209  ................
 07c0 02000103 01090200 01090400 0001010d  ................
 07d0 10000005 00080061 00000001 0101fb0e  .......a........
 07e0 0d000101 01010000 00010000 0101011f  ................
 07f0 06090000 00340000 00e50000 003e0000  .....4.......>..
 0800 00750000 00140100 0002011f 020f09d0  .u..............
 0810 00000000 a8000000 01da0000 00015201  ..............R.
 0820 000002af 00000003 c0000000 045a0100  .............Z..
 0830 00056301 0000056c 01000002 05010009  ..c....l........
 0840 02842300 80000000 00030c01 050a0303  ..#.............
 0850 09140001 05030300 09040001 05120302  ................
 0860 09020001 05090300 090c0001 05200300  ............. ..
 0870 09060001 05170300 090e0001 05140301  ................
 0880 09060001 05090300 090c0001 05240300  .............$..
 0890 09060001 05190300 090e0001 05080301  ................
 08a0 09060001 051b0002 04010300 09120001  ................
 08b0 05080301 090a0001 051b0002 04010300  ................
 08c0 09120001 00020402 037b090a 00010514  .........{......
 08d0 00020401 0300090a 00010516 00020401  ................
 08e0 03000910 00010511 00020401 03000908  ................
 08f0 0001050d 0307090a 00010506 03000908  ................
 0900 00010519 00020401 03000902 00010528  ...............(
 0910 00020401 03000914 0001051f 00020401  ................
 0920 0300090e 00010512 00020401 03000902  ................
 0930 0001050c 03010906 0001050a 03010906  ................
 0940 00010501 03010902 00010303 09080001  ................
 0950 050a0303 09140001 05030300 09040001  ................
 0960 05150302 09020001 050c0300 090c0001  ................
 0970 05230300 09060001 051a0300 090e0001  .#..............
 0980 05170301 09060001 050c0300 090c0001  ................
 0990 05270300 09060001 051c0300 090e0001  .'..............
 09a0 05120301 09060001 05090300 09140001  ................
 09b0 05220300 09040001 05190300 09140001  ."..............
 09c0 050f0301 09040001 05080300 090e0001  ................
 09d0 051f0002 04010300 09020001 05210002  .............!..
 09e0 04010300 09080001 051b0002 0402037b  ...............{
 09f0 090a0001 05140002 04010300 090a0001  ................
 0a00 05160002 04010300 09100001 05110002  ................
 0a10 04010300 09080001 050d0307 090a0001  ................
 0a20 05060300 09080001 05190002 04010300  ................
 0a30 09020001 05280002 04010300 09100001  .....(..........
 0a40 05120002 04010300 09100001 050c0301  ................
 0a50 09060001 050a0301 09060001 05010301  ................
 0a60 09020001 03030908 00010503 0305090c  ................
 0a70 00010511 03020904 0001050f 03000910  ................
 0a80 00010507 03010904 00010530 0300091a  ...........0....
 0a90 00010506 03000908 0001050b 03020904  ................
 0aa0 00010301 090c0001 050d0302 09100001  ................
 0ab0 05140002 04010300 09020001 05030303  ................
 0ac0 09160001 05010301 09040001 03030908  ................
 0ad0 0001051a 0301090a 00010515 03000908  ................
 0ae0 0001050c 03000906 0001050d 03010906  ................
 0af0 0001051a 03000908 00010513 03000906  ................
 0b00 00010501 03010902 00010303 09080001  ................
 0b10 050c0301 090a0001 050b0300 09040001  ................
 0b20 05200300 09040001 05290300 09060001  . .......)......
 0b30 00020401 06030009 02000100 02040203  ................
 0b40 00090400 01050100 02040506 03010902  ................
 0b50 00010402 034a0908 00010510 0302092e  .....J..........
 0b60 00010301 09060001 03010906 00010301  ................
 0b70 09060001 05030301 09060001 050c0302  ................
 0b80 09040001 050a0300 09020001 05090301  ................
 0b90 090a0001 05130002 04010300 09020001  ................
 0ba0 050c0302 090c0001 05030302 090c0001  ................
 0bb0 05130301 09040001 05010301 09020001  ................
 0bc0 03070908 00010507 0301090c 00010503  ................
 0bd0 03080904 00010002 04010603 00090200  ................
 0be0 01000204 02030009 0e000100 02040303  ................
 0bf0 00091800 01000204 05030009 38000100  ............8...
 0c00 02040506 0301091e 00010002 04010603  ................
 0c10 00090200 01000204 02030009 0e000100  ................
 0c20 02040303 00091800 01000204 05030009  ................
 0c30 38000105 01000204 05060303 091e0001  8...............
 0c40 03030908 00010512 0301090a 00010518  ................
 0c50 03000906 0001050a 03000904 00010509  ................
 0c60 00020401 0301090a 00010501 03040902  ................
 0c70 00010503 03010914 00010501 03040908  ................
 0c80 00010503 0301090e 00010501 0304090a  ................
 0c90 00010503 03010908 00010501 03040908  ................
 0ca0 00010503 0301090e 00010501 0301091c  ................
 0cb0 00010303 090c0001 05090303 09140001  ................
 0cc0 050e0002 04010300 09020001 05010301  ................
 0cd0 09080001 0303090a 00010503 03020912  ................
 0ce0 0001050a 0301090c 00010501 03010902  ................
 0cf0 00010303 090a0001 05230303 09080001  .........#......
 0d00 050a0300 09140001 05030301 09040001  ................
 0d10 05210301 09140001 050a0300 09100001  .!..............
 0d20 05030301 09040001 05010301 09140001  ................
 0d30 0303090a 00010503 03010932 00010301  ...........2....
 0d40 09040001 050d0303 09100001 05090303  ................
 0d50 090e0001 050c0301 09040001 05030300  ................
 0d60 09040001 05110301 09020001 05080300  ................
 0d70 09120001 050f0301 09020001 050c0300  ................
 0d80 093a0001 05260002 0402037e 090a0001  .:...&.....~....
 0d90 05150002 04010300 090a0001 05060303  ................
 0da0 090e0001 05050301 09080001 05030302  ................
 0db0 09060001 05010305 090a0001 050d0304  ................
 0dc0 090e0001 05110300 09100001 05060302  ................
 0dd0 09120001 051c0002 04010300 090e0001  ................
 0de0 05120002 04010300 09040001 05050302  ................
 0df0 090a0001 050c0301 09160001 050a0303  ................
 0e00 09040001 05010301 09020001 0303090a  ................
 0e10 0001050a 0303090c 00010503 03000904  ................
 0e20 00010514 03020902 00010521 0300090e  ...........!....
 0e30 0001051b 03000908 00010002 04010603  ................
 0e40 00090600 01000204 02030009 06000105  ................
 0e50 0b000204 04060300 09040001 051b0002  ................
 0e60 04040300 090a0001 050f0002 04040300  ................
 0e70 09060001 05070002 04040301 090a0001  ................
 0e80 05180002 0404037d 090a0001 05110002  .......}........
 0e90 04020300 090a0001 050b0305 090e0001  ................
 0ea0 05030302 09040001 05010301 090a0001  ................
 0eb0 0304090a 00010507 0302092c 00010517  ...........,....
 0ec0 03040904 0001050d 0300090c 00010511  ................
 0ed0 0300090c 0001050d 0301090e 00010508  ................
 0ee0 03000904 00010509 03020908 00010511  ................
 0ef0 037d0910 00010507 03020902 00010509  .}..............
 0f00 03040902 00010505 03010902 0001050f  ................
 0f10 037f0910 00010512 0300090c 00010509  ................
 0f20 0303090a 0001050f 03010902 0001051c  ................
 0f30 0300090e 00010533 0300090e 00010002  .......3........
 0f40 04010603 00090800 01000204 02030009  ................
 0f50 06000105 15000204 04060300 09040001  ................
 0f60 05050002 04040300 09040001 050d037f  ................
 0f70 090e0001 05100300 090c0001 05010302  ................
 0f80 09040001 0303090c 00010506 03010910  ................
 0f90 0001050c 0301090e 0001050b 03010914  ................
 0fa0 0001050c 03010908 00010302 09140001  ................
 0fb0 05010301 09160001 03030908 00010506  ................
 0fc0 03010910 0001050c 0301090e 0001050b  ................
 0fd0 03010914 0001050c 03010908 00010302  ................
 0fe0 09140001 05010301 09120001 03030908  ................
 0ff0 0001050b 0309091c 0001050a 03010902  ................
 1000 00010302 09040001 05070301 090a0001  ................
 1010 0512037c 090c0001 05100300 09080001  ...|............
 1020 052a0300 09040001 05080306 090a0001  .*..............
 1030 050e0303 090a0001 050a0301 09080001  ................
 1040 050b0301 09080001 050f0301 09060001  ................
 1050 050b0301 09060001 050d0301 09040001  ................
 1060 05130302 09040001 05120300 090c0001  ................
 1070 05100300 09040001 05050300 09040001  ................
 1080 050c0304 09360001 05070301 09080001  .....6..........
 1090 050c0304 09020001 05070301 09080001  ................
 10a0 0516030c 09020001 051f0301 09040001  ................
 10b0 05240300 09140001 05130300 09040001  .$..............
 10c0 050e0301 09080001 050c0300 09080001  ................
 10d0 03010904 00010516 00020401 0300090a  ................
 10e0 0001051d 037d090a 00010513 0301090a  .....}..........
 10f0 00010511 03080902 00010507 03010912  ................
 1100 0001050a 03030902 0001050f 0301090a  ................
 1110 00010507 03010904 0001050f 03030902  ................
 1120 00010507 03010906 00010373 09020001  ...........s....
 1130 050a0310 09020001 050f0301 090a0001  ................
 1140 05260300 09080001 05070301 09060001  .&..............
 1150 050c0304 09020001 05070301 090a0001  ................
 1160 03040902 00010301 091a0001 050e0304  ................
 1170 09020001 050a0300 09100001 050b0301  ................
 1180 09040001 050a0301 09080001 05150002  ................
 1190 04010300 090a0001 05140301 09100001  ................
 11a0 05170300 09040001 05140300 090e0001  ................
 11b0 05090300 090c0001 050b0002 04030301  ................
 11c0 09020001 053e0002 0403037f 09120001  .....>..........
 11d0 05340002 04010300 090a0001 05070302  .4..............
 11e0 090a0001 05090002 04050301 09020001  ................
 11f0 050a0002 04050301 090c0001 054d0002  .............M..
 1200 0405037e 09020001 05140002 04010300  ...~............
 1210 090a0001 05120002 04010300 09040001  ................
 1220 05200002 04010300 09040001 00020402  . ..............
 1230 06030009 02000105 32000204 04060300  ........2.......
 1240 090a0001 05070304 09140001 05090002  ................
 1250 04020301 09020001 051e0002 0402037f  ................
 1260 090e0001 05140002 04010300 090a0001  ................
 1270 05070302 090a0001 050d0304 09020001  ................
 1280 050b0300 09120001 03010904 0001050a  ................
 1290 03000904 00010509 03010904 00010510  ................
 12a0 0301090e 0001050f 03000904 0001050d  ................
 12b0 03000904 0001050c 03020904 00010507  ................
 12c0 03010906 0001050c 03040902 00010507  ................
 12d0 03010906 0001050c 03050902 00010507  ................
 12e0 03010906 0001050d 03050902 00010507  ................
 12f0 03010906 00010301 090e0001 050c0305  ................
 1300 090e0001 050d0302 09060001 05070302  ................
 1310 09140001 0301091e 00010304 09020001  ................
 1320 0301090c 00010304 09020001 050b0301  ................
 1330 090e0001 05070301 09080001 050b0002  ................
 1340 040103f8 7e090200 01050903 02090200  ....~...........
 1350 01050103 89010902 00010303 090c0001  ................
 1360 05030302 091e0001 03020914 0001050a  ................
 1370 03030918 00010501 03010902 00010503  ................
 1380 0309090a 0001050c 03010914 00010506  ................
 1390 03010908 0001050c 03000906 00010506  ................
 13a0 0301090c 0001050c 03000906 00010503  ................
 13b0 0301090a 00010501 03760908 00010403  .........v......
 13c0 0505038c 7f092000 01040205 0903f600  ...... .........
 13d0 094c0001 05030301 09080001 03090914  .L..............
 13e0 00010301 091a0001 05080300 09040001  ................
 13f0 050e0303 09040001 05010301 090e0001  ................
 1400 0303090a 00010509 03010912 0001051b  ................
 1410 03000904 00010519 03000904 0001052a  ...............*
 1420 03000902 00010531 03000906 00010506  .......1........
 1430 03000902 00010516 03010902 00010510  ................
 1440 03010908 0001050b 03010908 00010510  ................
 1450 03010902 00010509 0300090c 0001050e  ................
 1460 0300090c 0001050c 03000902 00010522  ..............."
 1470 037f0902 0001050e 0300090a 00010511  ................
 1480 0303090a 0001050b 03010908 00010301  ................
 1490 09080001 05100301 09020001 05090300  ................
 14a0 090c0001 050e0300 090c0001 050c0300  ................
 14b0 09040001 051d037f 09040001 050e0300  ................
 14c0 090a0001 050a0303 09080001 05010301  ................
 14d0 09040001 03030908 00010509 03010914  ................
 14e0 00010519 03000904 00010520 03000906  ........... ....
 14f0 00010506 03000902 0001051b 03010902  ................
 1500 0001050f 03000904 00010512 03010908  ................
 1510 0001050a 03000906 00010512 0301090a  ................
 1520 0001050a 03000906 00010518 0301090a  ................
 1530 0001050a 03000906 00010510 0302090a  ................
 1540 0001050b 03010908 00010509 03010902  ................
 1550 0001050c 0300090c 00010522 037f0906  ..........."....
 1560 0001050e 0300090a 0001050b 0303090a  ................
 1570 00010301 09080001 05090301 09020001  ................
 1580 050c0300 090c0001 051d037f 090c0001  ................
 1590 050e0300 090a0001 050a0303 09080001  ................
 15a0 05010301 09040001 03030908 0001050f  ................
 15b0 0301090a 00010509 03010908 00010506  ................
 15c0 03010902 0001050a 037f090a 0001050c  ................
 15d0 0302090a 00010501 0301090c 00010303  ................
 15e0 09080001 050f0301 090e0001 05090301  ................
 15f0 09080001 05060301 09020001 050b037f  ................
 1600 090a0001 050e0300 090c0001 05110002  ................
 1610 04010300 09020001 050e0002 04010300  ................
 1620 09080001 050c0302 09020001 05010301  ................
 1630 090c0001 03030908 0001050d 00020402  ................
 1640 0304090e 00010508 00020402 0300090c  ................
 1650 0001050d 00020402 03010908 00010508  ................
 1660 00020402 0300090c 00010514 00020402  ................
 1670 03010908 00010002 04010603 00090a00  ................
 1680 01050d06 03020916 00010501 03010914  ................
 1690 00010303 09080001 05090301 090e0001  ................
 16a0 03010908 00010516 00020401 03000902  ................
 16b0 0001050d 00020401 0300090c 00010512  ................
 16c0 00020401 0300090c 00010510 00020401  ................
 16d0 03000904 0001050b 00020401 03000904  ................
 16e0 0001050a 00020401 03000904 00010302  ................
 16f0 09020001 05010301 09040001 03030908  ................
 1700 00010508 0301090a 00010507 03010904  ................
 1710 00010509 03020904 00010508 03010902  ................
 1720 0001050a 037f090a 0001050f 03000908  ................
 1730 00010507 0303090a 00010506 03000908  ................
 1740 00010516 00020401 0300090a 00010513  ................
 1750 00020401 03000908 0001050c 0301090a  ................
 1760 00010511 03000908 0001050a 03000914  ................
 1770 00010508 03010904 00010509 0303090a  ................
 1780 00010301 09020001 05100301 09100001  ................
 1790 050c0300 090c0001 05130300 09060001  ................
 17a0 05090300 09080001 050a037e 090a0001  ...........~....
 17b0 05160305 090a0001 00020401 06030009  ................
 17c0 08000100 02040203 00090a00 01050100  ................
 17d0 02040506 03010904 00010908 00000101  ................
Contents of section .debug_str:
 0000 474e5520 43393920 31312e31 2e30202d  GNU C99 11.1.0 -
 0010 6d617263 683d7276 36346763 202d6d61  march=rv64gc -ma
 0020 62693d6c 70363464 202d6d63 6d6f6465  bi=lp64d -mcmode
 0030 6c3d6d65 64616e79 202d6d63 6d6f6465  l=medany -mcmode
 0040 6c3d6d65 64616e79 202d6d74 756e653d  l=medany -mtune=
 0050 726f636b 6574202d 6d617263 683d7276  rocket -march=rv
 0060 3634696d 61666463 202d6720 2d4f3220  64imafdc -g -O2 
 0070 2d4f3020 2d737464 3d676e75 3939202d  -O0 -std=gnu99 -
 0080 66666173 742d6d61 7468202d 666e6f2d  ffast-math -fno-
 0090 636f6d6d 6f6e202d 666e6f2d 6275696c  common -fno-buil
 00a0 74696e2d 7072696e 7466202d 666e6f2d  tin-printf -fno-
 00b0 74726565 2d6c6f6f 702d6469 73747269  tree-loop-distri
 00c0 62757465 2d706174 7465726e 73006261  bute-patterns.ba
 00d0 72726965 7200636f 756e7400 5f5f7569  rrier.count.__ui
 00e0 6e747074 725f7400 696e736e 5f6c656e  ntptr_t.insn_len
 00f0 00756e73 69676e65 64206368 6172006c  .unsigned char.l
 0100 66737200 65787065 63746564 0073686f  fsr.expected.sho
 0110 72742075 6e736967 6e656420 696e7400  rt unsigned int.
 0120 6e636f72 65730076 65726966 7900646f  ncores.verify.do
 0130 75626c65 006d6169 6e007465 73740073  uble.main.test.s
 0140 686f7274 20696e74 005f5f75 696e7436  hort int.__uint6
 0150 345f7400 74687265 61647365 6e736500  4_t.threadsense.
 0160 76657269 6679446f 75626c65 00637274  verifyDouble.crt
 0170 2e53002f 686f6d65 2f6a7374 696e652f  .S./home/jstine/
 0180 72697363 762d7761 6c6c792f 6578616d  riscv-wally/exam
 0190 706c6573 2f432f73 696d706c 6500474e  ples/C/simple.GN
 01a0 55204153 20322e33 37007374 726c656e  U AS 2.37.strlen
 01b0 00737472 6e6c656e 0070726f 63657373  .strnlen.process
 01c0 5f707265 63697369 6f6e0074 64617461  _precision.tdata
 01d0 5f73697a 65005f74 64617461 5f656e64  _size._tdata_end
 01e0 00676574 75696e74 00707574 63686172  .getuint.putchar
 01f0 00726567 73007072 696e7473 74720074  .regs.printstr.t
 0200 68726561 645f656e 74727900 73747263  hread_entry.strc
 0210 70790062 61736500 7072696e 746e756d  py.base.printnum
 0220 006c6f6e 67206c6f 6e672075 6e736967  .long long unsig
 0230 6e656420 696e7400 656e6162 6c650061  ned int.enable.a
 0240 626f7274 005f5f67 6e75635f 76615f6c  bort.__gnuc_va_l
 0250 69737400 70616463 0073697a 655f7400  ist.padc.size_t.
 0260 7369676e 00776964 74680074 6f686f73  sign.width.tohos
 0270 745f6578 69740070 62756600 73747230  t_exit.pbuf.str0
 0280 00636f75 6e746572 7300636f 6465006c  .counters.code.l
 0290 6173745f 666d7400 6275666c 656e0072  ast_fmt.buflen.r
 02a0 65737769 74636800 64617461 00737472  eswitch.data.str
 02b0 636d7000 6c666c61 67006361 75736500  cmp.lflag.cause.
 02c0 6c6f6e67 206c6f6e 6720696e 74007073  long long int.ps
 02d0 7472006d 656d7365 74006172 67300061  tr.memset.arg0.a
 02e0 72673100 61726732 005f696e 69740073  rg1.arg2._init.s
 02f0 79736361 6c6c0067 6574696e 7400756e  yscall.getint.un
 0300 7369676e 65645f6e 756d6265 72007075  signed_number.pu
 0310 74646174 00617267 63007768 69636800  tdat.argc.which.
 0320 61726776 00737072 696e7466 005f7464  argv.sprintf._td
 0330 6174615f 62656769 6e00616c 74666c61  ata_begin.altfla
 0340 67007462 73735f73 697a6500 74687265  g.tbss_size.thre
 0350 61645f70 6f696e74 65720063 6f756e74  ad_pointer.count
 0360 65725f6e 616d6573 00776f72 64005f74  er_names.word._t
 0370 6273735f 656e6400 746f686f 73740064  bss_end.tohost.d
 0380 69677300 73707269 6e74665f 70757463  igs.sprintf_putc
 0390 68006279 74650070 72696e74 68657800  h.byte.printhex.
 03a0 6d616769 635f6d65 6d006861 6e646c65  magic_mem.handle
 03b0 5f747261 70006672 6f6d686f 7374006d  _trap.fromhost.m
 03c0 656d6370 79005f5f 746d7000 5f5f6275  emcpy.__tmp.__bu
 03d0 696c7469 6e5f7661 5f6c6973 74006174  iltin_va_list.at
 03e0 6f6c0073 65745374 61747300 696e6974  ol.setStats.init
 03f0 5f746c73 00646573 74007670 72696e74  _tls.dest.vprint
 0400 666d7400                             fmt.            
Contents of section .debug_line_str:
 0000 73696d70 6c652e63 002f686f 6d652f6a  simple.c./home/j
 0010 7374696e 652f7269 7363762d 77616c6c  stine/riscv-wall
 0020 792f6578 616d706c 65732f43 2f73696d  y/examples/C/sim
 0030 706c6500 2e2e2f63 6f6d6d6f 6e002f68  ple.../common./h
 0040 6f6d652f 6a737469 6e652f72 69736376  ome/jstine/riscv
 0050 2f726973 63763634 2d756e6b 6e6f776e  /riscv64-unknown
 0060 2d656c66 2f696e63 6c756465 2f6d6163  -elf/include/mac
 0070 68696e65 002f686f 6d652f6a 7374696e  hine./home/jstin
 0080 652f7269 7363762f 72697363 7636342d  e/riscv/riscv64-
 0090 756e6b6e 6f776e2d 656c662f 696e636c  unknown-elf/incl
 00a0 7564652f 73797300 7574696c 2e68005f  ude/sys.util.h._
 00b0 64656661 756c745f 74797065 732e6800  default_types.h.
 00c0 5f737464 696e742e 68006372 742e5300  _stdint.h.crt.S.
 00d0 2e2e2f63 6f6d6d6f 6e2f7379 7363616c  ../common/syscal
 00e0 6c732e63 002f686f 6d652f6a 7374696e  ls.c./home/jstin
 00f0 652f7269 7363762f 72697363 7636342d  e/riscv/riscv64-
 0100 756e6b6e 6f776e2d 656c662f 696e636c  unknown-elf/incl
 0110 75646500 2f686f6d 652f6a73 74696e65  ude./home/jstine
 0120 2f726973 63762f6c 69622f67 63632f72  /riscv/lib/gcc/r
 0130 69736376 36342d75 6e6b6e6f 776e2d65  iscv64-unknown-e
 0140 6c662f31 312e312e 302f696e 636c7564  lf/11.1.0/includ
 0150 65007374 64696f2e 68007374 64646566  e.stdio.h.stddef
 0160 2e680073 74646172 672e6800 73747269  .h.stdarg.h.stri
 0170 6e672e68 00                          ng.h.           
Contents of section .comment:
 0000 4743433a 2028474e 55292031 312e312e  GCC: (GNU) 11.1.
 0010 3000                                 0.              
Contents of section .riscv.attributes:
 0000 41380000 00726973 63760001 2e000000  A8...riscv......
 0010 04100572 76363469 3270305f 6d327030  ...rv64i2p0_m2p0
 0020 5f613270 305f6632 70305f64 3270305f  _a2p0_f2p0_d2p0_
 0030 63327030 0008010a 0b                 c2p0.....       
Contents of section .debug_frame:
 0000 0c000000 ffffffff 0300017c 010d0200  ...........|....
 0010 2c000000 00000000 00200080 00000000  ,........ ......
 0020 0e010000 00000000 420e5042 8802420c  ........B.PB..B.
 0030 08000304 01c80c02 50420e00 00000000  ........PB......
 0040 2c000000 00000000 0e210080 00000000  ,........!......
 0050 24010000 00000000 420e6042 8802420c  $.......B.`B..B.
 0060 0800031a 01c80c02 60420e00 00000000  ........`B......
 0070 2c000000 00000000 32220080 00000000  ,.......2"......
 0080 8a000000 00000000 420e2042 8802420c  ........B. B..B.
 0090 08000280 c80c0220 420e0000 00000000  ....... B.......
 00a0 2c000000 00000000 bc220080 00000000  ,........"......
 00b0 36000000 00000000 420e3042 8802420c  6.......B.0B..B.
 00c0 08006cc8 0c023042 0e000000 00000000  ..l...0B........
 00d0 2c000000 00000000 f2220080 00000000  ,........"......
 00e0 28000000 00000000 420e2042 8802420c  (.......B. B..B.
 00f0 08005ec8 0c022042 0e000000 00000000  ..^... B........
 0100 2c000000 00000000 1a230080 00000000  ,........#......
 0110 1e000000 00000000 420e3042 8802420c  ........B.0B..B.
 0120 080054c8 0c023042 0e000000 00000000  ..T...0B........
 0130 2c000000 00000000 38230080 00000000  ,.......8#......
 0140 4c000000 00000000 420e2044 81028804  L.......B. D....
 0150 420c0800 023ec142 c80c0220 420e0000  B....>.B... B...
 0160 0c000000 ffffffff 0300017c 010d0200  ...........|....
 0170 2c000000 60010000 84230080 00000000  ,...`....#......
 0180 0e010000 00000000 420e5042 8802420c  ........B.PB..B.
 0190 08000304 01c80c02 50420e00 00000000  ........PB......
 01a0 2c000000 60010000 92240080 00000000  ,...`....$......
 01b0 24010000 00000000 420e6042 8802420c  $.......B.`B..B.
 01c0 0800031a 01c80c02 60420e00 00000000  ........`B......
 01d0 2c000000 60010000 b6250080 00000000  ,...`....%......
 01e0 8a000000 00000000 420e2042 8802420c  ........B. B..B.
 01f0 08000280 c80c0220 420e0000 00000000  ....... B.......
 0200 2c000000 60010000 40260080 00000000  ,...`...@&......
 0210 36000000 00000000 420e3042 8802420c  6.......B.0B..B.
 0220 08006cc8 0c023042 0e000000 00000000  ..l...0B........
 0230 2c000000 60010000 76260080 00000000  ,...`...v&......
 0240 28000000 00000000 420e2042 8802420c  (.......B. B..B.
 0250 08005ec8 0c022042 0e000000 00000000  ..^... B........
 0260 2c000000 60010000 9e260080 00000000  ,...`....&......
 0270 7e000000 00000000 420eb001 42880242  ~.......B...B..B
 0280 0c080002 74c80c02 b001420e 00000000  ....t.....B.....
 0290 2c000000 60010000 1c270080 00000000  ,...`....'......
 02a0 14010000 00000000 420e5042 8802420c  ........B.PB..B.
 02b0 0800030a 01c80c02 50420e00 00000000  ........PB......
 02c0 24000000 60010000 30280080 00000000  $...`...0(......
 02d0 20000000 00000000 420e2042 8802420c   .......B. B..B.
 02e0 08000000 00000000 24000000 60010000  ........$...`...
 02f0 50280080 00000000 1c000000 00000000  P(..............
 0300 420e3044 81028804 420c0800 00000000  B.0D....B.......
 0310 24000000 60010000 6c280080 00000000  $...`...l(......
 0320 18000000 00000000 420e2044 81028804  ........B. D....
 0330 420c0800 00000000 24000000 60010000  B.......$...`...
 0340 84280080 00000000 10000000 00000000  .(..............
 0350 420e1044 81028804 420c0800 00000000  B..D....B.......
 0360 34000000 60010000 94280080 00000000  4...`....(......
 0370 36000000 00000000 420e3046 81028804  6.......B.0F....
 0380 8906420c 080064c1 42c80c02 3042c942  ..B...d.B...0B.B
 0390 0e000000 00000000 2c000000 60010000  ........,...`...
 03a0 ca280080 00000000 28000000 00000000  .(......(.......
 03b0 420e2042 8802420c 08005ec8 0c022042  B. B..B...^... B
 03c0 0e000000 00000000 2c000000 60010000  ........,...`...
 03d0 f2280080 00000000 2a000000 00000000  .(......*.......
 03e0 420e2044 81028804 420c0800 5cc142c8  B. D....B...\.B.
 03f0 0c022042 0e000000 2c000000 60010000  .. B....,...`...
 0400 1c290080 00000000 66000000 00000000  .)......f.......
 0410 420e2044 81028804 420c0800 0258c142  B. D....B....X.B
 0420 c80c0220 420e0000 24000000 60010000  ... B...$...`...
 0430 82290080 00000000 e6000000 00000000  .)..............
 0440 420eb001 46810288 04890642 0c080000  B...F......B....
 0450 2c000000 60010000 682a0080 00000000  ,...`...h*......
 0460 72000000 00000000 420e2044 81028804  r.......B. D....
 0470 420c0800 0264c142 c80c0220 420e0000  B....d.B... B...
 0480 2c000000 60010000 da2a0080 00000000  ,...`....*......
 0490 8c000000 00000000 420e4044 81028804  ........B.@D....
 04a0 420c0800 027ec142 c80c0240 420e0000  B....~.B...@B...
 04b0 34000000 60010000 662b0080 00000000  4...`...f+......
 04c0 fc000000 00000000 420ed002 44810288  ........B...D...
 04d0 04420c08 0002eec1 42c80c02 d002420e  .B......B.....B.
 04e0 00000000 00000000 2c000000 60010000  ........,...`...
 04f0 622c0080 00000000 6c000000 00000000  b,......l.......
 0500 420e2042 8802420c 08000262 c80c0220  B. B..B....b... 
 0510 420e0000 00000000 2c000000 60010000  B.......,...`...
 0520 ce2c0080 00000000 68000000 00000000  .,......h.......
 0530 420e2042 8802420c 0800025e c80c0220  B. B..B....^... 
 0540 420e0000 00000000 34000000 60010000  B.......4...`...
 0550 362d0080 00000000 60030000 00000000  6-......`.......
 0560 420e7048 81028804 89069208 420c0800  B.pH........B...
 0570 034a03c1 42c80c02 7042c942 d2420e00  .J..B...pB.B.B..
 0580 2c000000 60010000 96300080 00000000  ,...`....0......
 0590 56000000 00000000 420e7044 81128814  V.......B.pD....
 05a0 420c0840 0248c142 c80c0270 420e0000  B..@.H.B...pB...
 05b0 2c000000 60010000 ec300080 00000000  ,...`....0......
 05c0 46000000 00000000 420e4042 8802420c  F.......B.@B..B.
 05d0 08007cc8 0c024042 0e000000 00000000  ..|...@B........
 05e0 34000000 60010000 32310080 00000000  4...`...21......
 05f0 c2000000 00000000 420e9002 44810e88  ........B...D...
 0600 10420c08 3002b4c1 42c80c02 9002420e  .B..0...B.....B.
 0610 00000000 00000000 2c000000 60010000  ........,...`...
 0620 f4310080 00000000 b8000000 00000000  .1..............
 0630 420e5042 8802420c 080002ae c80c0250  B.PB..B........P
 0640 420e0000 00000000 2c000000 60010000  B.......,...`...
 0650 ac320080 00000000 ce000000 00000000  .2..............
 0660 420e5042 8802420c 080002c4 c80c0250  B.PB..B........P
 0670 420e0000 00000000 2c000000 60010000  B.......,...`...
 0680 7a330080 00000000 3c000000 00000000  z3......<.......
 0690 420e3042 8802420c 080072c8 0c023042  B.0B..B...r...0B
 06a0 0e000000 00000000 2c000000 60010000  ........,...`...
 06b0 b6330080 00000000 4e000000 00000000  .3......N.......
 06c0 420e3042 8802420c 08000244 c80c0230  B.0B..B....D...0
 06d0 420e0000 00000000 2c000000 60010000  B.......,...`...
 06e0 04340080 00000000 72000000 00000000  .4......r.......
 06f0 420e3042 8802420c 08000268 c80c0230  B.0B..B....h...0
 0700 420e0000 00000000 2c000000 60010000  B.......,...`...
 0710 76340080 00000000 4a000000 00000000  v4......J.......
 0720 420e3042 8802420c 08000240 c80c0230  B.0B..B....@...0
 0730 420e0000 00000000 2c000000 60010000  B.......,...`...
 0740 c0340080 00000000 dc000000 00000000  .4..............
 0750 420e3042 8802420c 080002d2 c80c0230  B.0B..B........0
 0760 420e0000 00000000                    B.......        

Disassembly of section .text.init:

0000000080000000 <_start>:
_start():
/home/jstine/riscv-wally/examples/C/simple/../common/crt.S:18
    80000000:	4081                	li	ra,0
/home/jstine/riscv-wally/examples/C/simple/../common/crt.S:19
    80000002:	4101                	li	sp,0
/home/jstine/riscv-wally/examples/C/simple/../common/crt.S:20
    80000004:	4181                	li	gp,0
/home/jstine/riscv-wally/examples/C/simple/../common/crt.S:21
    80000006:	4201                	li	tp,0
/home/jstine/riscv-wally/examples/C/simple/../common/crt.S:22
    80000008:	4281                	li	t0,0
/home/jstine/riscv-wally/examples/C/simple/../common/crt.S:23
    8000000a:	4301                	li	t1,0
/home/jstine/riscv-wally/examples/C/simple/../common/crt.S:24
    8000000c:	4381                	li	t2,0
/home/jstine/riscv-wally/examples/C/simple/../common/crt.S:25
    8000000e:	4401                	li	s0,0
/home/jstine/riscv-wally/examples/C/simple/../common/crt.S:26
    80000010:	4481                	li	s1,0
/home/jstine/riscv-wally/examples/C/simple/../common/crt.S:27
    80000012:	4501                	li	a0,0
/home/jstine/riscv-wally/examples/C/simple/../common/crt.S:28
    80000014:	4581                	li	a1,0
/home/jstine/riscv-wally/examples/C/simple/../common/crt.S:29
    80000016:	4601                	li	a2,0
/home/jstine/riscv-wally/examples/C/simple/../common/crt.S:30
    80000018:	4681                	li	a3,0
/home/jstine/riscv-wally/examples/C/simple/../common/crt.S:31
    8000001a:	4701                	li	a4,0
/home/jstine/riscv-wally/examples/C/simple/../common/crt.S:32
    8000001c:	4781                	li	a5,0
/home/jstine/riscv-wally/examples/C/simple/../common/crt.S:33
    8000001e:	4801                	li	a6,0
/home/jstine/riscv-wally/examples/C/simple/../common/crt.S:34
    80000020:	4881                	li	a7,0
/home/jstine/riscv-wally/examples/C/simple/../common/crt.S:35
    80000022:	4901                	li	s2,0
/home/jstine/riscv-wally/examples/C/simple/../common/crt.S:36
    80000024:	4981                	li	s3,0
/home/jstine/riscv-wally/examples/C/simple/../common/crt.S:37
    80000026:	4a01                	li	s4,0
/home/jstine/riscv-wally/examples/C/simple/../common/crt.S:38
    80000028:	4a81                	li	s5,0
/home/jstine/riscv-wally/examples/C/simple/../common/crt.S:39
    8000002a:	4b01                	li	s6,0
/home/jstine/riscv-wally/examples/C/simple/../common/crt.S:40
    8000002c:	4b81                	li	s7,0
/home/jstine/riscv-wally/examples/C/simple/../common/crt.S:41
    8000002e:	4c01                	li	s8,0
/home/jstine/riscv-wally/examples/C/simple/../common/crt.S:42
    80000030:	4c81                	li	s9,0
/home/jstine/riscv-wally/examples/C/simple/../common/crt.S:43
    80000032:	4d01                	li	s10,0
/home/jstine/riscv-wally/examples/C/simple/../common/crt.S:44
    80000034:	4d81                	li	s11,0
/home/jstine/riscv-wally/examples/C/simple/../common/crt.S:45
    80000036:	4e01                	li	t3,0
/home/jstine/riscv-wally/examples/C/simple/../common/crt.S:46
    80000038:	4e81                	li	t4,0
/home/jstine/riscv-wally/examples/C/simple/../common/crt.S:47
    8000003a:	4f01                	li	t5,0
/home/jstine/riscv-wally/examples/C/simple/../common/crt.S:48
    8000003c:	4f81                	li	t6,0
/home/jstine/riscv-wally/examples/C/simple/../common/crt.S:51
    8000003e:	62f9                	lui	t0,0x1e
/home/jstine/riscv-wally/examples/C/simple/../common/crt.S:52
    80000040:	3002a073          	csrs	mstatus,t0
/home/jstine/riscv-wally/examples/C/simple/../common/crt.S:55
    80000044:	4285                	li	t0,1
/home/jstine/riscv-wally/examples/C/simple/../common/crt.S:56
    80000046:	02fe                	slli	t0,t0,0x1f
/home/jstine/riscv-wally/examples/C/simple/../common/crt.S:58
    80000048:	0002d863          	bgez	t0,80000058 <_start+0x58>
/home/jstine/riscv-wally/examples/C/simple/../common/crt.S:63
    8000004c:	4505                	li	a0,1
/home/jstine/riscv-wally/examples/C/simple/../common/crt.S:64
    8000004e:	00001297          	auipc	t0,0x1
    80000052:	faa2a923          	sw	a0,-78(t0) # 80001000 <tohost>
/home/jstine/riscv-wally/examples/C/simple/../common/crt.S:65
    80000056:	bfdd                	j	8000004c <_start+0x4c>
/home/jstine/riscv-wally/examples/C/simple/../common/crt.S:70
    80000058:	00000297          	auipc	t0,0x0
    8000005c:	09028293          	addi	t0,t0,144 # 800000e8 <_start+0xe8>
/home/jstine/riscv-wally/examples/C/simple/../common/crt.S:71
    80000060:	30529073          	csrw	mtvec,t0
/home/jstine/riscv-wally/examples/C/simple/../common/crt.S:73
    80000064:	00301073          	fscsr	zero
/home/jstine/riscv-wally/examples/C/simple/../common/crt.S:74
    80000068:	f0000053          	fmv.w.x	ft0,zero
/home/jstine/riscv-wally/examples/C/simple/../common/crt.S:75
    8000006c:	f00000d3          	fmv.w.x	ft1,zero
/home/jstine/riscv-wally/examples/C/simple/../common/crt.S:76
    80000070:	f0000153          	fmv.w.x	ft2,zero
/home/jstine/riscv-wally/examples/C/simple/../common/crt.S:77
    80000074:	f00001d3          	fmv.w.x	ft3,zero
/home/jstine/riscv-wally/examples/C/simple/../common/crt.S:78
    80000078:	f0000253          	fmv.w.x	ft4,zero
/home/jstine/riscv-wally/examples/C/simple/../common/crt.S:79
    8000007c:	f00002d3          	fmv.w.x	ft5,zero
/home/jstine/riscv-wally/examples/C/simple/../common/crt.S:80
    80000080:	f0000353          	fmv.w.x	ft6,zero
/home/jstine/riscv-wally/examples/C/simple/../common/crt.S:81
    80000084:	f00003d3          	fmv.w.x	ft7,zero
/home/jstine/riscv-wally/examples/C/simple/../common/crt.S:82
    80000088:	f0000453          	fmv.w.x	fs0,zero
/home/jstine/riscv-wally/examples/C/simple/../common/crt.S:83
    8000008c:	f00004d3          	fmv.w.x	fs1,zero
/home/jstine/riscv-wally/examples/C/simple/../common/crt.S:84
    80000090:	f0000553          	fmv.w.x	fa0,zero
/home/jstine/riscv-wally/examples/C/simple/../common/crt.S:85
    80000094:	f00005d3          	fmv.w.x	fa1,zero
/home/jstine/riscv-wally/examples/C/simple/../common/crt.S:86
    80000098:	f0000653          	fmv.w.x	fa2,zero
/home/jstine/riscv-wally/examples/C/simple/../common/crt.S:87
    8000009c:	f00006d3          	fmv.w.x	fa3,zero
/home/jstine/riscv-wally/examples/C/simple/../common/crt.S:88
    800000a0:	f0000753          	fmv.w.x	fa4,zero
/home/jstine/riscv-wally/examples/C/simple/../common/crt.S:89
    800000a4:	f00007d3          	fmv.w.x	fa5,zero
/home/jstine/riscv-wally/examples/C/simple/../common/crt.S:90
    800000a8:	f0000853          	fmv.w.x	fa6,zero
/home/jstine/riscv-wally/examples/C/simple/../common/crt.S:91
    800000ac:	f00008d3          	fmv.w.x	fa7,zero
/home/jstine/riscv-wally/examples/C/simple/../common/crt.S:92
    800000b0:	f0000953          	fmv.w.x	fs2,zero
/home/jstine/riscv-wally/examples/C/simple/../common/crt.S:93
    800000b4:	f00009d3          	fmv.w.x	fs3,zero
/home/jstine/riscv-wally/examples/C/simple/../common/crt.S:94
    800000b8:	f0000a53          	fmv.w.x	fs4,zero
/home/jstine/riscv-wally/examples/C/simple/../common/crt.S:95
    800000bc:	f0000ad3          	fmv.w.x	fs5,zero
/home/jstine/riscv-wally/examples/C/simple/../common/crt.S:96
    800000c0:	f0000b53          	fmv.w.x	fs6,zero
/home/jstine/riscv-wally/examples/C/simple/../common/crt.S:97
    800000c4:	f0000bd3          	fmv.w.x	fs7,zero
/home/jstine/riscv-wally/examples/C/simple/../common/crt.S:98
    800000c8:	f0000c53          	fmv.w.x	fs8,zero
/home/jstine/riscv-wally/examples/C/simple/../common/crt.S:99
    800000cc:	f0000cd3          	fmv.w.x	fs9,zero
/home/jstine/riscv-wally/examples/C/simple/../common/crt.S:100
    800000d0:	f0000d53          	fmv.w.x	fs10,zero
/home/jstine/riscv-wally/examples/C/simple/../common/crt.S:101
    800000d4:	f0000dd3          	fmv.w.x	fs11,zero
/home/jstine/riscv-wally/examples/C/simple/../common/crt.S:102
    800000d8:	f0000e53          	fmv.w.x	ft8,zero
/home/jstine/riscv-wally/examples/C/simple/../common/crt.S:103
    800000dc:	f0000ed3          	fmv.w.x	ft9,zero
/home/jstine/riscv-wally/examples/C/simple/../common/crt.S:104
    800000e0:	f0000f53          	fmv.w.x	ft10,zero
/home/jstine/riscv-wally/examples/C/simple/../common/crt.S:105
    800000e4:	f0000fd3          	fmv.w.x	ft11,zero
/home/jstine/riscv-wally/examples/C/simple/../common/crt.S:110
    800000e8:	00000297          	auipc	t0,0x0
    800000ec:	03828293          	addi	t0,t0,56 # 80000120 <trap_entry>
/home/jstine/riscv-wally/examples/C/simple/../common/crt.S:111
    800000f0:	30529073          	csrw	mtvec,t0
/home/jstine/riscv-wally/examples/C/simple/../common/crt.S:116
    800000f4:	00004197          	auipc	gp,0x4
    800000f8:	e5418193          	addi	gp,gp,-428 # 80003f48 <__global_pointer$>
/home/jstine/riscv-wally/examples/C/simple/../common/crt.S:119
    800000fc:	87718213          	addi	tp,gp,-1929 # 800037bf <_end+0x3f>
/home/jstine/riscv-wally/examples/C/simple/../common/crt.S:120
    80000100:	fc027213          	andi	tp,tp,-64
/home/jstine/riscv-wally/examples/C/simple/../common/crt.S:123
    80000104:	f1402573          	csrr	a0,mhartid
/home/jstine/riscv-wally/examples/C/simple/../common/crt.S:125
    80000108:	4585                	li	a1,1
/home/jstine/riscv-wally/examples/C/simple/../common/crt.S:126
    8000010a:	00b57063          	bgeu	a0,a1,8000010a <_start+0x10a>
/home/jstine/riscv-wally/examples/C/simple/../common/crt.S:130
    8000010e:	00150113          	addi	sp,a0,1
/home/jstine/riscv-wally/examples/C/simple/../common/crt.S:131
    80000112:	0146                	slli	sp,sp,0x11
/home/jstine/riscv-wally/examples/C/simple/../common/crt.S:132
    80000114:	9112                	add	sp,sp,tp
/home/jstine/riscv-wally/examples/C/simple/../common/crt.S:133
    80000116:	01151613          	slli	a2,a0,0x11
/home/jstine/riscv-wally/examples/C/simple/../common/crt.S:134
    8000011a:	9232                	add	tp,tp,a2
/home/jstine/riscv-wally/examples/C/simple/../common/crt.S:136
    8000011c:	0670206f          	j	80002982 <_init>

0000000080000120 <trap_entry>:
trap_entry():
/home/jstine/riscv-wally/examples/C/simple/../common/crt.S:140
    80000120:	716d                	addi	sp,sp,-272
/home/jstine/riscv-wally/examples/C/simple/../common/crt.S:142
    80000122:	e406                	sd	ra,8(sp)
/home/jstine/riscv-wally/examples/C/simple/../common/crt.S:143
    80000124:	e80a                	sd	sp,16(sp)
/home/jstine/riscv-wally/examples/C/simple/../common/crt.S:144
    80000126:	ec0e                	sd	gp,24(sp)
/home/jstine/riscv-wally/examples/C/simple/../common/crt.S:145
    80000128:	f012                	sd	tp,32(sp)
/home/jstine/riscv-wally/examples/C/simple/../common/crt.S:146
    8000012a:	f416                	sd	t0,40(sp)
/home/jstine/riscv-wally/examples/C/simple/../common/crt.S:147
    8000012c:	f81a                	sd	t1,48(sp)
/home/jstine/riscv-wally/examples/C/simple/../common/crt.S:148
    8000012e:	fc1e                	sd	t2,56(sp)
/home/jstine/riscv-wally/examples/C/simple/../common/crt.S:149
    80000130:	e0a2                	sd	s0,64(sp)
/home/jstine/riscv-wally/examples/C/simple/../common/crt.S:150
    80000132:	e4a6                	sd	s1,72(sp)
/home/jstine/riscv-wally/examples/C/simple/../common/crt.S:151
    80000134:	e8aa                	sd	a0,80(sp)
/home/jstine/riscv-wally/examples/C/simple/../common/crt.S:152
    80000136:	ecae                	sd	a1,88(sp)
/home/jstine/riscv-wally/examples/C/simple/../common/crt.S:153
    80000138:	f0b2                	sd	a2,96(sp)
/home/jstine/riscv-wally/examples/C/simple/../common/crt.S:154
    8000013a:	f4b6                	sd	a3,104(sp)
/home/jstine/riscv-wally/examples/C/simple/../common/crt.S:155
    8000013c:	f8ba                	sd	a4,112(sp)
/home/jstine/riscv-wally/examples/C/simple/../common/crt.S:156
    8000013e:	fcbe                	sd	a5,120(sp)
/home/jstine/riscv-wally/examples/C/simple/../common/crt.S:157
    80000140:	e142                	sd	a6,128(sp)
/home/jstine/riscv-wally/examples/C/simple/../common/crt.S:158
    80000142:	e546                	sd	a7,136(sp)
/home/jstine/riscv-wally/examples/C/simple/../common/crt.S:159
    80000144:	e94a                	sd	s2,144(sp)
/home/jstine/riscv-wally/examples/C/simple/../common/crt.S:160
    80000146:	ed4e                	sd	s3,152(sp)
/home/jstine/riscv-wally/examples/C/simple/../common/crt.S:161
    80000148:	f152                	sd	s4,160(sp)
/home/jstine/riscv-wally/examples/C/simple/../common/crt.S:162
    8000014a:	f556                	sd	s5,168(sp)
/home/jstine/riscv-wally/examples/C/simple/../common/crt.S:163
    8000014c:	f95a                	sd	s6,176(sp)
/home/jstine/riscv-wally/examples/C/simple/../common/crt.S:164
    8000014e:	fd5e                	sd	s7,184(sp)
/home/jstine/riscv-wally/examples/C/simple/../common/crt.S:165
    80000150:	e1e2                	sd	s8,192(sp)
/home/jstine/riscv-wally/examples/C/simple/../common/crt.S:166
    80000152:	e5e6                	sd	s9,200(sp)
/home/jstine/riscv-wally/examples/C/simple/../common/crt.S:167
    80000154:	e9ea                	sd	s10,208(sp)
/home/jstine/riscv-wally/examples/C/simple/../common/crt.S:168
    80000156:	edee                	sd	s11,216(sp)
/home/jstine/riscv-wally/examples/C/simple/../common/crt.S:169
    80000158:	f1f2                	sd	t3,224(sp)
/home/jstine/riscv-wally/examples/C/simple/../common/crt.S:170
    8000015a:	f5f6                	sd	t4,232(sp)
/home/jstine/riscv-wally/examples/C/simple/../common/crt.S:171
    8000015c:	f9fa                	sd	t5,240(sp)
/home/jstine/riscv-wally/examples/C/simple/../common/crt.S:172
    8000015e:	fdfe                	sd	t6,248(sp)
/home/jstine/riscv-wally/examples/C/simple/../common/crt.S:174
    80000160:	34202573          	csrr	a0,mcause
/home/jstine/riscv-wally/examples/C/simple/../common/crt.S:175
    80000164:	341025f3          	csrr	a1,mepc
/home/jstine/riscv-wally/examples/C/simple/../common/crt.S:176
    80000168:	860a                	mv	a2,sp
/home/jstine/riscv-wally/examples/C/simple/../common/crt.S:177
    8000016a:	6e6020ef          	jal	ra,80002850 <handle_trap>
/home/jstine/riscv-wally/examples/C/simple/../common/crt.S:178
    8000016e:	34151073          	csrw	mepc,a0
/home/jstine/riscv-wally/examples/C/simple/../common/crt.S:181
    80000172:	6289                	lui	t0,0x2
    80000174:	8002829b          	addiw	t0,t0,-2048
/home/jstine/riscv-wally/examples/C/simple/../common/crt.S:182
    80000178:	3002a073          	csrs	mstatus,t0
/home/jstine/riscv-wally/examples/C/simple/../common/crt.S:184
    8000017c:	60a2                	ld	ra,8(sp)
/home/jstine/riscv-wally/examples/C/simple/../common/crt.S:185
    8000017e:	6142                	ld	sp,16(sp)
/home/jstine/riscv-wally/examples/C/simple/../common/crt.S:186
    80000180:	61e2                	ld	gp,24(sp)
/home/jstine/riscv-wally/examples/C/simple/../common/crt.S:187
    80000182:	7202                	ld	tp,32(sp)
/home/jstine/riscv-wally/examples/C/simple/../common/crt.S:188
    80000184:	72a2                	ld	t0,40(sp)
/home/jstine/riscv-wally/examples/C/simple/../common/crt.S:189
    80000186:	7342                	ld	t1,48(sp)
/home/jstine/riscv-wally/examples/C/simple/../common/crt.S:190
    80000188:	73e2                	ld	t2,56(sp)
/home/jstine/riscv-wally/examples/C/simple/../common/crt.S:191
    8000018a:	6406                	ld	s0,64(sp)
/home/jstine/riscv-wally/examples/C/simple/../common/crt.S:192
    8000018c:	64a6                	ld	s1,72(sp)
/home/jstine/riscv-wally/examples/C/simple/../common/crt.S:193
    8000018e:	6546                	ld	a0,80(sp)
/home/jstine/riscv-wally/examples/C/simple/../common/crt.S:194
    80000190:	65e6                	ld	a1,88(sp)
/home/jstine/riscv-wally/examples/C/simple/../common/crt.S:195
    80000192:	7606                	ld	a2,96(sp)
/home/jstine/riscv-wally/examples/C/simple/../common/crt.S:196
    80000194:	76a6                	ld	a3,104(sp)
/home/jstine/riscv-wally/examples/C/simple/../common/crt.S:197
    80000196:	7746                	ld	a4,112(sp)
/home/jstine/riscv-wally/examples/C/simple/../common/crt.S:198
    80000198:	77e6                	ld	a5,120(sp)
/home/jstine/riscv-wally/examples/C/simple/../common/crt.S:199
    8000019a:	680a                	ld	a6,128(sp)
/home/jstine/riscv-wally/examples/C/simple/../common/crt.S:200
    8000019c:	68aa                	ld	a7,136(sp)
/home/jstine/riscv-wally/examples/C/simple/../common/crt.S:201
    8000019e:	694a                	ld	s2,144(sp)
/home/jstine/riscv-wally/examples/C/simple/../common/crt.S:202
    800001a0:	69ea                	ld	s3,152(sp)
/home/jstine/riscv-wally/examples/C/simple/../common/crt.S:203
    800001a2:	7a0a                	ld	s4,160(sp)
/home/jstine/riscv-wally/examples/C/simple/../common/crt.S:204
    800001a4:	7aaa                	ld	s5,168(sp)
/home/jstine/riscv-wally/examples/C/simple/../common/crt.S:205
    800001a6:	7b4a                	ld	s6,176(sp)
/home/jstine/riscv-wally/examples/C/simple/../common/crt.S:206
    800001a8:	7bea                	ld	s7,184(sp)
/home/jstine/riscv-wally/examples/C/simple/../common/crt.S:207
    800001aa:	6c0e                	ld	s8,192(sp)
/home/jstine/riscv-wally/examples/C/simple/../common/crt.S:208
    800001ac:	6cae                	ld	s9,200(sp)
/home/jstine/riscv-wally/examples/C/simple/../common/crt.S:209
    800001ae:	6d4e                	ld	s10,208(sp)
/home/jstine/riscv-wally/examples/C/simple/../common/crt.S:210
    800001b0:	6dee                	ld	s11,216(sp)
/home/jstine/riscv-wally/examples/C/simple/../common/crt.S:211
    800001b2:	7e0e                	ld	t3,224(sp)
/home/jstine/riscv-wally/examples/C/simple/../common/crt.S:212
    800001b4:	7eae                	ld	t4,232(sp)
/home/jstine/riscv-wally/examples/C/simple/../common/crt.S:213
    800001b6:	7f4e                	ld	t5,240(sp)
/home/jstine/riscv-wally/examples/C/simple/../common/crt.S:214
    800001b8:	7fee                	ld	t6,248(sp)
/home/jstine/riscv-wally/examples/C/simple/../common/crt.S:216
    800001ba:	6151                	addi	sp,sp,272
/home/jstine/riscv-wally/examples/C/simple/../common/crt.S:217
    800001bc:	30200073          	mret
	...

Disassembly of section .tohost:

0000000080001000 <tohost>:
	...

0000000080001040 <fromhost>:
	...

Disassembly of section .text:

0000000080002000 <verify>:
verify():
/home/jstine/riscv-wally/examples/C/simple/../common/util.h:13
    80002000:	715d                	addi	sp,sp,-80
    80002002:	e4a2                	sd	s0,72(sp)
    80002004:	0880                	addi	s0,sp,80
    80002006:	87aa                	mv	a5,a0
    80002008:	fcb43023          	sd	a1,-64(s0)
    8000200c:	fac43c23          	sd	a2,-72(s0)
    80002010:	fcf42623          	sw	a5,-52(s0)
/home/jstine/riscv-wally/examples/C/simple/../common/util.h:16
    80002014:	fe042623          	sw	zero,-20(s0)
    80002018:	a841                	j	800020a8 <verify+0xa8>
/home/jstine/riscv-wally/examples/C/simple/../common/util.h:18
    8000201a:	fec42783          	lw	a5,-20(s0)
    8000201e:	078a                	slli	a5,a5,0x2
    80002020:	fc043703          	ld	a4,-64(s0)
    80002024:	97ba                	add	a5,a5,a4
    80002026:	439c                	lw	a5,0(a5)
    80002028:	fef42423          	sw	a5,-24(s0)
    8000202c:	fec42783          	lw	a5,-20(s0)
    80002030:	0785                	addi	a5,a5,1
    80002032:	078a                	slli	a5,a5,0x2
    80002034:	fc043703          	ld	a4,-64(s0)
    80002038:	97ba                	add	a5,a5,a4
    8000203a:	439c                	lw	a5,0(a5)
    8000203c:	fef42223          	sw	a5,-28(s0)
/home/jstine/riscv-wally/examples/C/simple/../common/util.h:19
    80002040:	fec42783          	lw	a5,-20(s0)
    80002044:	078a                	slli	a5,a5,0x2
    80002046:	fb843703          	ld	a4,-72(s0)
    8000204a:	97ba                	add	a5,a5,a4
    8000204c:	439c                	lw	a5,0(a5)
    8000204e:	fef42023          	sw	a5,-32(s0)
    80002052:	fec42783          	lw	a5,-20(s0)
    80002056:	0785                	addi	a5,a5,1
    80002058:	078a                	slli	a5,a5,0x2
    8000205a:	fb843703          	ld	a4,-72(s0)
    8000205e:	97ba                	add	a5,a5,a4
    80002060:	439c                	lw	a5,0(a5)
    80002062:	fcf42e23          	sw	a5,-36(s0)
/home/jstine/riscv-wally/examples/C/simple/../common/util.h:20
    80002066:	fe842783          	lw	a5,-24(s0)
    8000206a:	873e                	mv	a4,a5
    8000206c:	fe042783          	lw	a5,-32(s0)
    80002070:	2701                	sext.w	a4,a4
    80002072:	2781                	sext.w	a5,a5
    80002074:	00f70763          	beq	a4,a5,80002082 <verify+0x82>
/home/jstine/riscv-wally/examples/C/simple/../common/util.h:20 (discriminator 1)
    80002078:	fec42783          	lw	a5,-20(s0)
    8000207c:	2785                	addiw	a5,a5,1
    8000207e:	2781                	sext.w	a5,a5
    80002080:	a059                	j	80002106 <verify+0x106>
/home/jstine/riscv-wally/examples/C/simple/../common/util.h:21
    80002082:	fe442783          	lw	a5,-28(s0)
    80002086:	873e                	mv	a4,a5
    80002088:	fdc42783          	lw	a5,-36(s0)
    8000208c:	2701                	sext.w	a4,a4
    8000208e:	2781                	sext.w	a5,a5
    80002090:	00f70763          	beq	a4,a5,8000209e <verify+0x9e>
/home/jstine/riscv-wally/examples/C/simple/../common/util.h:21 (discriminator 1)
    80002094:	fec42783          	lw	a5,-20(s0)
    80002098:	2789                	addiw	a5,a5,2
    8000209a:	2781                	sext.w	a5,a5
    8000209c:	a0ad                	j	80002106 <verify+0x106>
/home/jstine/riscv-wally/examples/C/simple/../common/util.h:16 (discriminator 2)
    8000209e:	fec42783          	lw	a5,-20(s0)
    800020a2:	2789                	addiw	a5,a5,2
    800020a4:	fef42623          	sw	a5,-20(s0)
/home/jstine/riscv-wally/examples/C/simple/../common/util.h:16 (discriminator 1)
    800020a8:	fcc42783          	lw	a5,-52(s0)
    800020ac:	01f7d71b          	srliw	a4,a5,0x1f
    800020b0:	9fb9                	addw	a5,a5,a4
    800020b2:	4017d79b          	sraiw	a5,a5,0x1
    800020b6:	2781                	sext.w	a5,a5
    800020b8:	0017979b          	slliw	a5,a5,0x1
    800020bc:	0007871b          	sext.w	a4,a5
    800020c0:	fec42783          	lw	a5,-20(s0)
    800020c4:	2781                	sext.w	a5,a5
    800020c6:	f4e7cae3          	blt	a5,a4,8000201a <verify+0x1a>
/home/jstine/riscv-wally/examples/C/simple/../common/util.h:23
    800020ca:	fcc42783          	lw	a5,-52(s0)
    800020ce:	8b85                	andi	a5,a5,1
    800020d0:	2781                	sext.w	a5,a5
    800020d2:	cb8d                	beqz	a5,80002104 <verify+0x104>
/home/jstine/riscv-wally/examples/C/simple/../common/util.h:23 (discriminator 1)
    800020d4:	fcc42783          	lw	a5,-52(s0)
    800020d8:	078a                	slli	a5,a5,0x2
    800020da:	17f1                	addi	a5,a5,-4
    800020dc:	fc043703          	ld	a4,-64(s0)
    800020e0:	97ba                	add	a5,a5,a4
    800020e2:	439c                	lw	a5,0(a5)
    800020e4:	0007869b          	sext.w	a3,a5
    800020e8:	fcc42783          	lw	a5,-52(s0)
    800020ec:	078a                	slli	a5,a5,0x2
    800020ee:	17f1                	addi	a5,a5,-4
    800020f0:	fb843703          	ld	a4,-72(s0)
    800020f4:	97ba                	add	a5,a5,a4
    800020f6:	439c                	lw	a5,0(a5)
    800020f8:	8736                	mv	a4,a3
    800020fa:	00f70563          	beq	a4,a5,80002104 <verify+0x104>
/home/jstine/riscv-wally/examples/C/simple/../common/util.h:24
    800020fe:	fcc42783          	lw	a5,-52(s0)
    80002102:	a011                	j	80002106 <verify+0x106>
/home/jstine/riscv-wally/examples/C/simple/../common/util.h:25
    80002104:	4781                	li	a5,0
/home/jstine/riscv-wally/examples/C/simple/../common/util.h:26
    80002106:	853e                	mv	a0,a5
    80002108:	6426                	ld	s0,72(sp)
    8000210a:	6161                	addi	sp,sp,80
    8000210c:	8082                	ret

000000008000210e <verifyDouble>:
verifyDouble():
/home/jstine/riscv-wally/examples/C/simple/../common/util.h:29
    8000210e:	711d                	addi	sp,sp,-96
    80002110:	eca2                	sd	s0,88(sp)
    80002112:	1080                	addi	s0,sp,96
    80002114:	87aa                	mv	a5,a0
    80002116:	fab43823          	sd	a1,-80(s0)
    8000211a:	fac43423          	sd	a2,-88(s0)
    8000211e:	faf42e23          	sw	a5,-68(s0)
/home/jstine/riscv-wally/examples/C/simple/../common/util.h:32
    80002122:	fe042623          	sw	zero,-20(s0)
    80002126:	a06d                	j	800021d0 <verifyDouble+0xc2>
/home/jstine/riscv-wally/examples/C/simple/../common/util.h:34
    80002128:	fec42783          	lw	a5,-20(s0)
    8000212c:	078e                	slli	a5,a5,0x3
    8000212e:	fb043703          	ld	a4,-80(s0)
    80002132:	97ba                	add	a5,a5,a4
    80002134:	239c                	fld	fa5,0(a5)
    80002136:	fef43027          	fsd	fa5,-32(s0)
    8000213a:	fec42783          	lw	a5,-20(s0)
    8000213e:	0785                	addi	a5,a5,1
    80002140:	078e                	slli	a5,a5,0x3
    80002142:	fb043703          	ld	a4,-80(s0)
    80002146:	97ba                	add	a5,a5,a4
    80002148:	239c                	fld	fa5,0(a5)
    8000214a:	fcf43c27          	fsd	fa5,-40(s0)
/home/jstine/riscv-wally/examples/C/simple/../common/util.h:35
    8000214e:	fec42783          	lw	a5,-20(s0)
    80002152:	078e                	slli	a5,a5,0x3
    80002154:	fa843703          	ld	a4,-88(s0)
    80002158:	97ba                	add	a5,a5,a4
    8000215a:	239c                	fld	fa5,0(a5)
    8000215c:	fcf43827          	fsd	fa5,-48(s0)
    80002160:	fec42783          	lw	a5,-20(s0)
    80002164:	0785                	addi	a5,a5,1
    80002166:	078e                	slli	a5,a5,0x3
    80002168:	fa843703          	ld	a4,-88(s0)
    8000216c:	97ba                	add	a5,a5,a4
    8000216e:	239c                	fld	fa5,0(a5)
    80002170:	fcf43427          	fsd	fa5,-56(s0)
/home/jstine/riscv-wally/examples/C/simple/../common/util.h:36
    80002174:	fe043707          	fld	fa4,-32(s0)
    80002178:	fd043787          	fld	fa5,-48(s0)
    8000217c:	a2f727d3          	feq.d	a5,fa4,fa5
    80002180:	00f037b3          	snez	a5,a5
    80002184:	0ff7f793          	zext.b	a5,a5
    80002188:	fcf42223          	sw	a5,-60(s0)
    8000218c:	fd843707          	fld	fa4,-40(s0)
    80002190:	fc843787          	fld	fa5,-56(s0)
    80002194:	a2f727d3          	feq.d	a5,fa4,fa5
    80002198:	00f037b3          	snez	a5,a5
    8000219c:	0ff7f793          	zext.b	a5,a5
    800021a0:	fcf42023          	sw	a5,-64(s0)
/home/jstine/riscv-wally/examples/C/simple/../common/util.h:37
    800021a4:	fc442783          	lw	a5,-60(s0)
    800021a8:	873e                	mv	a4,a5
    800021aa:	fc042783          	lw	a5,-64(s0)
    800021ae:	8ff9                	and	a5,a5,a4
    800021b0:	2781                	sext.w	a5,a5
    800021b2:	eb91                	bnez	a5,800021c6 <verifyDouble+0xb8>
/home/jstine/riscv-wally/examples/C/simple/../common/util.h:37 (discriminator 1)
    800021b4:	fec42783          	lw	a5,-20(s0)
    800021b8:	2785                	addiw	a5,a5,1
    800021ba:	2781                	sext.w	a5,a5
    800021bc:	fc442703          	lw	a4,-60(s0)
    800021c0:	9fb9                	addw	a5,a5,a4
    800021c2:	2781                	sext.w	a5,a5
    800021c4:	a09d                	j	8000222a <verifyDouble+0x11c>
/home/jstine/riscv-wally/examples/C/simple/../common/util.h:32 (discriminator 2)
    800021c6:	fec42783          	lw	a5,-20(s0)
    800021ca:	2789                	addiw	a5,a5,2
    800021cc:	fef42623          	sw	a5,-20(s0)
/home/jstine/riscv-wally/examples/C/simple/../common/util.h:32 (discriminator 1)
    800021d0:	fbc42783          	lw	a5,-68(s0)
    800021d4:	01f7d71b          	srliw	a4,a5,0x1f
    800021d8:	9fb9                	addw	a5,a5,a4
    800021da:	4017d79b          	sraiw	a5,a5,0x1
    800021de:	2781                	sext.w	a5,a5
    800021e0:	0017979b          	slliw	a5,a5,0x1
    800021e4:	0007871b          	sext.w	a4,a5
    800021e8:	fec42783          	lw	a5,-20(s0)
    800021ec:	2781                	sext.w	a5,a5
    800021ee:	f2e7cde3          	blt	a5,a4,80002128 <verifyDouble+0x1a>
/home/jstine/riscv-wally/examples/C/simple/../common/util.h:39
    800021f2:	fbc42783          	lw	a5,-68(s0)
    800021f6:	8b85                	andi	a5,a5,1
    800021f8:	2781                	sext.w	a5,a5
    800021fa:	c79d                	beqz	a5,80002228 <verifyDouble+0x11a>
/home/jstine/riscv-wally/examples/C/simple/../common/util.h:39 (discriminator 1)
    800021fc:	fbc42783          	lw	a5,-68(s0)
    80002200:	078e                	slli	a5,a5,0x3
    80002202:	17e1                	addi	a5,a5,-8
    80002204:	fb043703          	ld	a4,-80(s0)
    80002208:	97ba                	add	a5,a5,a4
    8000220a:	2398                	fld	fa4,0(a5)
    8000220c:	fbc42783          	lw	a5,-68(s0)
    80002210:	078e                	slli	a5,a5,0x3
    80002212:	17e1                	addi	a5,a5,-8
    80002214:	fa843703          	ld	a4,-88(s0)
    80002218:	97ba                	add	a5,a5,a4
    8000221a:	239c                	fld	fa5,0(a5)
    8000221c:	a2f727d3          	feq.d	a5,fa4,fa5
    80002220:	e781                	bnez	a5,80002228 <verifyDouble+0x11a>
/home/jstine/riscv-wally/examples/C/simple/../common/util.h:40
    80002222:	fbc42783          	lw	a5,-68(s0)
    80002226:	a011                	j	8000222a <verifyDouble+0x11c>
/home/jstine/riscv-wally/examples/C/simple/../common/util.h:41
    80002228:	4781                	li	a5,0
/home/jstine/riscv-wally/examples/C/simple/../common/util.h:42
    8000222a:	853e                	mv	a0,a5
    8000222c:	6466                	ld	s0,88(sp)
    8000222e:	6125                	addi	sp,sp,96
    80002230:	8082                	ret

0000000080002232 <barrier>:
barrier():
/home/jstine/riscv-wally/examples/C/simple/../common/util.h:45
    80002232:	1101                	addi	sp,sp,-32
    80002234:	ec22                	sd	s0,24(sp)
    80002236:	1000                	addi	s0,sp,32
    80002238:	87aa                	mv	a5,a0
    8000223a:	fef42623          	sw	a5,-20(s0)
/home/jstine/riscv-wally/examples/C/simple/../common/util.h:50
    8000223e:	0ff0000f          	fence
/home/jstine/riscv-wally/examples/C/simple/../common/util.h:52
    80002242:	00022783          	lw	a5,0(tp) # 0 <threadsense.2>
    80002246:	0017b793          	seqz	a5,a5
    8000224a:	0ff7f793          	zext.b	a5,a5
    8000224e:	0007871b          	sext.w	a4,a5
    80002252:	00e22023          	sw	a4,0(tp) # 0 <threadsense.2>
/home/jstine/riscv-wally/examples/C/simple/../common/util.h:53
    80002256:	00001797          	auipc	a5,0x1
    8000225a:	4f278793          	addi	a5,a5,1266 # 80003748 <count.1>
    8000225e:	4705                	li	a4,1
    80002260:	0f50000f          	fence	iorw,ow
    80002264:	04e7a6af          	amoadd.w.aq	a3,a4,(a5)
    80002268:	0006879b          	sext.w	a5,a3
    8000226c:	0007871b          	sext.w	a4,a5
    80002270:	fec42783          	lw	a5,-20(s0)
    80002274:	37fd                	addiw	a5,a5,-1
    80002276:	2781                	sext.w	a5,a5
    80002278:	02f71063          	bne	a4,a5,80002298 <barrier+0x66>
/home/jstine/riscv-wally/examples/C/simple/../common/util.h:55
    8000227c:	00001797          	auipc	a5,0x1
    80002280:	4cc78793          	addi	a5,a5,1228 # 80003748 <count.1>
    80002284:	0007a023          	sw	zero,0(a5)
/home/jstine/riscv-wally/examples/C/simple/../common/util.h:56
    80002288:	00022703          	lw	a4,0(tp) # 0 <threadsense.2>
    8000228c:	00001797          	auipc	a5,0x1
    80002290:	4c078793          	addi	a5,a5,1216 # 8000374c <sense.0>
    80002294:	c398                	sw	a4,0(a5)
    80002296:	a829                	j	800022b0 <barrier+0x7e>
/home/jstine/riscv-wally/examples/C/simple/../common/util.h:58
    80002298:	0001                	nop
/home/jstine/riscv-wally/examples/C/simple/../common/util.h:58 (discriminator 1)
    8000229a:	00001797          	auipc	a5,0x1
    8000229e:	4b278793          	addi	a5,a5,1202 # 8000374c <sense.0>
    800022a2:	439c                	lw	a5,0(a5)
    800022a4:	0007871b          	sext.w	a4,a5
    800022a8:	00022783          	lw	a5,0(tp) # 0 <threadsense.2>
    800022ac:	fef717e3          	bne	a4,a5,8000229a <barrier+0x68>
/home/jstine/riscv-wally/examples/C/simple/../common/util.h:61
    800022b0:	0ff0000f          	fence
/home/jstine/riscv-wally/examples/C/simple/../common/util.h:62
    800022b4:	0001                	nop
    800022b6:	6462                	ld	s0,24(sp)
    800022b8:	6105                	addi	sp,sp,32
    800022ba:	8082                	ret

00000000800022bc <lfsr>:
lfsr():
/home/jstine/riscv-wally/examples/C/simple/../common/util.h:65
    800022bc:	7179                	addi	sp,sp,-48
    800022be:	f422                	sd	s0,40(sp)
    800022c0:	1800                	addi	s0,sp,48
    800022c2:	fca43c23          	sd	a0,-40(s0)
/home/jstine/riscv-wally/examples/C/simple/../common/util.h:66
    800022c6:	fd843783          	ld	a5,-40(s0)
    800022ca:	0017d713          	srli	a4,a5,0x1
    800022ce:	fd843783          	ld	a5,-40(s0)
    800022d2:	8fb9                	xor	a5,a5,a4
    800022d4:	8b85                	andi	a5,a5,1
    800022d6:	fef43423          	sd	a5,-24(s0)
/home/jstine/riscv-wally/examples/C/simple/../common/util.h:67
    800022da:	fd843783          	ld	a5,-40(s0)
    800022de:	0017d713          	srli	a4,a5,0x1
    800022e2:	fe843783          	ld	a5,-24(s0)
    800022e6:	17fa                	slli	a5,a5,0x3e
    800022e8:	8fd9                	or	a5,a5,a4
/home/jstine/riscv-wally/examples/C/simple/../common/util.h:68
    800022ea:	853e                	mv	a0,a5
    800022ec:	7422                	ld	s0,40(sp)
    800022ee:	6145                	addi	sp,sp,48
    800022f0:	8082                	ret

00000000800022f2 <insn_len>:
insn_len():
/home/jstine/riscv-wally/examples/C/simple/../common/util.h:71
    800022f2:	1101                	addi	sp,sp,-32
    800022f4:	ec22                	sd	s0,24(sp)
    800022f6:	1000                	addi	s0,sp,32
    800022f8:	fea43423          	sd	a0,-24(s0)
/home/jstine/riscv-wally/examples/C/simple/../common/util.h:72
    800022fc:	fe843783          	ld	a5,-24(s0)
    80002300:	0007d783          	lhu	a5,0(a5)
    80002304:	2781                	sext.w	a5,a5
    80002306:	8b8d                	andi	a5,a5,3
    80002308:	2781                	sext.w	a5,a5
    8000230a:	c399                	beqz	a5,80002310 <insn_len+0x1e>
/home/jstine/riscv-wally/examples/C/simple/../common/util.h:72 (discriminator 1)
    8000230c:	4791                	li	a5,4
    8000230e:	a011                	j	80002312 <insn_len+0x20>
/home/jstine/riscv-wally/examples/C/simple/../common/util.h:72 (discriminator 2)
    80002310:	4789                	li	a5,2
/home/jstine/riscv-wally/examples/C/simple/../common/util.h:73 (discriminator 5)
    80002312:	853e                	mv	a0,a5
    80002314:	6462                	ld	s0,24(sp)
    80002316:	6105                	addi	sp,sp,32
    80002318:	8082                	ret

000000008000231a <sum>:
sum():
/home/jstine/riscv-wally/examples/C/simple/simple.c:9
    8000231a:	7179                	addi	sp,sp,-48
    8000231c:	f422                	sd	s0,40(sp)
    8000231e:	1800                	addi	s0,sp,48
    80002320:	fca43c23          	sd	a0,-40(s0)
/home/jstine/riscv-wally/examples/C/simple/simple.c:19
    80002324:	4785                	li	a5,1
    80002326:	478d                	li	a5,3
    80002328:	fef42623          	sw	a5,-20(s0)
/home/jstine/riscv-wally/examples/C/simple/simple.c:27
    8000232c:	fec42783          	lw	a5,-20(s0)
/home/jstine/riscv-wally/examples/C/simple/simple.c:28
    80002330:	853e                	mv	a0,a5
    80002332:	7422                	ld	s0,40(sp)
    80002334:	6145                	addi	sp,sp,48
    80002336:	8082                	ret

0000000080002338 <main>:
main():
/home/jstine/riscv-wally/examples/C/simple/simple.c:30
    80002338:	1101                	addi	sp,sp,-32
    8000233a:	ec06                	sd	ra,24(sp)
    8000233c:	e822                	sd	s0,16(sp)
    8000233e:	1000                	addi	s0,sp,32
/home/jstine/riscv-wally/examples/C/simple/simple.c:32
    80002340:	4511                	li	a0,4
    80002342:	fd9ff0ef          	jal	ra,8000231a <sum>
    80002346:	87aa                	mv	a5,a0
    80002348:	2781                	sext.w	a5,a5
    8000234a:	fef42423          	sw	a5,-24(s0)
/home/jstine/riscv-wally/examples/C/simple/simple.c:33
    8000234e:	fe842783          	lw	a5,-24(s0)
    80002352:	85be                	mv	a1,a5
    80002354:	00001517          	auipc	a0,0x1
    80002358:	24c50513          	addi	a0,a0,588 # 800035a0 <atol+0xe0>
    8000235c:	53b000ef          	jal	ra,80003096 <printf>
/home/jstine/riscv-wally/examples/C/simple/simple.c:34
    80002360:	47a9                	li	a5,10
    80002362:	fef42023          	sw	a5,-32(s0)
/home/jstine/riscv-wally/examples/C/simple/simple.c:35
    80002366:	fe040713          	addi	a4,s0,-32
    8000236a:	fe840793          	addi	a5,s0,-24
    8000236e:	863a                	mv	a2,a4
    80002370:	85be                	mv	a1,a5
    80002372:	4505                	li	a0,1
    80002374:	c8dff0ef          	jal	ra,80002000 <verify>
    80002378:	87aa                	mv	a5,a0
/home/jstine/riscv-wally/examples/C/simple/simple.c:36
    8000237a:	853e                	mv	a0,a5
    8000237c:	60e2                	ld	ra,24(sp)
    8000237e:	6442                	ld	s0,16(sp)
    80002380:	6105                	addi	sp,sp,32
    80002382:	8082                	ret

0000000080002384 <verify>:
verify():
/home/jstine/riscv-wally/examples/C/simple/../common/util.h:13
    80002384:	715d                	addi	sp,sp,-80
    80002386:	e4a2                	sd	s0,72(sp)
    80002388:	0880                	addi	s0,sp,80
    8000238a:	87aa                	mv	a5,a0
    8000238c:	fcb43023          	sd	a1,-64(s0)
    80002390:	fac43c23          	sd	a2,-72(s0)
    80002394:	fcf42623          	sw	a5,-52(s0)
/home/jstine/riscv-wally/examples/C/simple/../common/util.h:16
    80002398:	fe042623          	sw	zero,-20(s0)
    8000239c:	a841                	j	8000242c <verify+0xa8>
/home/jstine/riscv-wally/examples/C/simple/../common/util.h:18
    8000239e:	fec42783          	lw	a5,-20(s0)
    800023a2:	078a                	slli	a5,a5,0x2
    800023a4:	fc043703          	ld	a4,-64(s0)
    800023a8:	97ba                	add	a5,a5,a4
    800023aa:	439c                	lw	a5,0(a5)
    800023ac:	fef42423          	sw	a5,-24(s0)
    800023b0:	fec42783          	lw	a5,-20(s0)
    800023b4:	0785                	addi	a5,a5,1
    800023b6:	078a                	slli	a5,a5,0x2
    800023b8:	fc043703          	ld	a4,-64(s0)
    800023bc:	97ba                	add	a5,a5,a4
    800023be:	439c                	lw	a5,0(a5)
    800023c0:	fef42223          	sw	a5,-28(s0)
/home/jstine/riscv-wally/examples/C/simple/../common/util.h:19
    800023c4:	fec42783          	lw	a5,-20(s0)
    800023c8:	078a                	slli	a5,a5,0x2
    800023ca:	fb843703          	ld	a4,-72(s0)
    800023ce:	97ba                	add	a5,a5,a4
    800023d0:	439c                	lw	a5,0(a5)
    800023d2:	fef42023          	sw	a5,-32(s0)
    800023d6:	fec42783          	lw	a5,-20(s0)
    800023da:	0785                	addi	a5,a5,1
    800023dc:	078a                	slli	a5,a5,0x2
    800023de:	fb843703          	ld	a4,-72(s0)
    800023e2:	97ba                	add	a5,a5,a4
    800023e4:	439c                	lw	a5,0(a5)
    800023e6:	fcf42e23          	sw	a5,-36(s0)
/home/jstine/riscv-wally/examples/C/simple/../common/util.h:20
    800023ea:	fe842783          	lw	a5,-24(s0)
    800023ee:	873e                	mv	a4,a5
    800023f0:	fe042783          	lw	a5,-32(s0)
    800023f4:	2701                	sext.w	a4,a4
    800023f6:	2781                	sext.w	a5,a5
    800023f8:	00f70763          	beq	a4,a5,80002406 <verify+0x82>
/home/jstine/riscv-wally/examples/C/simple/../common/util.h:20 (discriminator 1)
    800023fc:	fec42783          	lw	a5,-20(s0)
    80002400:	2785                	addiw	a5,a5,1
    80002402:	2781                	sext.w	a5,a5
    80002404:	a059                	j	8000248a <verify+0x106>
/home/jstine/riscv-wally/examples/C/simple/../common/util.h:21
    80002406:	fe442783          	lw	a5,-28(s0)
    8000240a:	873e                	mv	a4,a5
    8000240c:	fdc42783          	lw	a5,-36(s0)
    80002410:	2701                	sext.w	a4,a4
    80002412:	2781                	sext.w	a5,a5
    80002414:	00f70763          	beq	a4,a5,80002422 <verify+0x9e>
/home/jstine/riscv-wally/examples/C/simple/../common/util.h:21 (discriminator 1)
    80002418:	fec42783          	lw	a5,-20(s0)
    8000241c:	2789                	addiw	a5,a5,2
    8000241e:	2781                	sext.w	a5,a5
    80002420:	a0ad                	j	8000248a <verify+0x106>
/home/jstine/riscv-wally/examples/C/simple/../common/util.h:16 (discriminator 2)
    80002422:	fec42783          	lw	a5,-20(s0)
    80002426:	2789                	addiw	a5,a5,2
    80002428:	fef42623          	sw	a5,-20(s0)
/home/jstine/riscv-wally/examples/C/simple/../common/util.h:16 (discriminator 1)
    8000242c:	fcc42783          	lw	a5,-52(s0)
    80002430:	01f7d71b          	srliw	a4,a5,0x1f
    80002434:	9fb9                	addw	a5,a5,a4
    80002436:	4017d79b          	sraiw	a5,a5,0x1
    8000243a:	2781                	sext.w	a5,a5
    8000243c:	0017979b          	slliw	a5,a5,0x1
    80002440:	0007871b          	sext.w	a4,a5
    80002444:	fec42783          	lw	a5,-20(s0)
    80002448:	2781                	sext.w	a5,a5
    8000244a:	f4e7cae3          	blt	a5,a4,8000239e <verify+0x1a>
/home/jstine/riscv-wally/examples/C/simple/../common/util.h:23
    8000244e:	fcc42783          	lw	a5,-52(s0)
    80002452:	8b85                	andi	a5,a5,1
    80002454:	2781                	sext.w	a5,a5
    80002456:	cb8d                	beqz	a5,80002488 <verify+0x104>
/home/jstine/riscv-wally/examples/C/simple/../common/util.h:23 (discriminator 1)
    80002458:	fcc42783          	lw	a5,-52(s0)
    8000245c:	078a                	slli	a5,a5,0x2
    8000245e:	17f1                	addi	a5,a5,-4
    80002460:	fc043703          	ld	a4,-64(s0)
    80002464:	97ba                	add	a5,a5,a4
    80002466:	439c                	lw	a5,0(a5)
    80002468:	0007869b          	sext.w	a3,a5
    8000246c:	fcc42783          	lw	a5,-52(s0)
    80002470:	078a                	slli	a5,a5,0x2
    80002472:	17f1                	addi	a5,a5,-4
    80002474:	fb843703          	ld	a4,-72(s0)
    80002478:	97ba                	add	a5,a5,a4
    8000247a:	439c                	lw	a5,0(a5)
    8000247c:	8736                	mv	a4,a3
    8000247e:	00f70563          	beq	a4,a5,80002488 <verify+0x104>
/home/jstine/riscv-wally/examples/C/simple/../common/util.h:24
    80002482:	fcc42783          	lw	a5,-52(s0)
    80002486:	a011                	j	8000248a <verify+0x106>
/home/jstine/riscv-wally/examples/C/simple/../common/util.h:25
    80002488:	4781                	li	a5,0
/home/jstine/riscv-wally/examples/C/simple/../common/util.h:26
    8000248a:	853e                	mv	a0,a5
    8000248c:	6426                	ld	s0,72(sp)
    8000248e:	6161                	addi	sp,sp,80
    80002490:	8082                	ret

0000000080002492 <verifyDouble>:
verifyDouble():
/home/jstine/riscv-wally/examples/C/simple/../common/util.h:29
    80002492:	711d                	addi	sp,sp,-96
    80002494:	eca2                	sd	s0,88(sp)
    80002496:	1080                	addi	s0,sp,96
    80002498:	87aa                	mv	a5,a0
    8000249a:	fab43823          	sd	a1,-80(s0)
    8000249e:	fac43423          	sd	a2,-88(s0)
    800024a2:	faf42e23          	sw	a5,-68(s0)
/home/jstine/riscv-wally/examples/C/simple/../common/util.h:32
    800024a6:	fe042623          	sw	zero,-20(s0)
    800024aa:	a06d                	j	80002554 <verifyDouble+0xc2>
/home/jstine/riscv-wally/examples/C/simple/../common/util.h:34
    800024ac:	fec42783          	lw	a5,-20(s0)
    800024b0:	078e                	slli	a5,a5,0x3
    800024b2:	fb043703          	ld	a4,-80(s0)
    800024b6:	97ba                	add	a5,a5,a4
    800024b8:	239c                	fld	fa5,0(a5)
    800024ba:	fef43027          	fsd	fa5,-32(s0)
    800024be:	fec42783          	lw	a5,-20(s0)
    800024c2:	0785                	addi	a5,a5,1
    800024c4:	078e                	slli	a5,a5,0x3
    800024c6:	fb043703          	ld	a4,-80(s0)
    800024ca:	97ba                	add	a5,a5,a4
    800024cc:	239c                	fld	fa5,0(a5)
    800024ce:	fcf43c27          	fsd	fa5,-40(s0)
/home/jstine/riscv-wally/examples/C/simple/../common/util.h:35
    800024d2:	fec42783          	lw	a5,-20(s0)
    800024d6:	078e                	slli	a5,a5,0x3
    800024d8:	fa843703          	ld	a4,-88(s0)
    800024dc:	97ba                	add	a5,a5,a4
    800024de:	239c                	fld	fa5,0(a5)
    800024e0:	fcf43827          	fsd	fa5,-48(s0)
    800024e4:	fec42783          	lw	a5,-20(s0)
    800024e8:	0785                	addi	a5,a5,1
    800024ea:	078e                	slli	a5,a5,0x3
    800024ec:	fa843703          	ld	a4,-88(s0)
    800024f0:	97ba                	add	a5,a5,a4
    800024f2:	239c                	fld	fa5,0(a5)
    800024f4:	fcf43427          	fsd	fa5,-56(s0)
/home/jstine/riscv-wally/examples/C/simple/../common/util.h:36
    800024f8:	fe043707          	fld	fa4,-32(s0)
    800024fc:	fd043787          	fld	fa5,-48(s0)
    80002500:	a2f727d3          	feq.d	a5,fa4,fa5
    80002504:	00f037b3          	snez	a5,a5
    80002508:	0ff7f793          	zext.b	a5,a5
    8000250c:	fcf42223          	sw	a5,-60(s0)
    80002510:	fd843707          	fld	fa4,-40(s0)
    80002514:	fc843787          	fld	fa5,-56(s0)
    80002518:	a2f727d3          	feq.d	a5,fa4,fa5
    8000251c:	00f037b3          	snez	a5,a5
    80002520:	0ff7f793          	zext.b	a5,a5
    80002524:	fcf42023          	sw	a5,-64(s0)
/home/jstine/riscv-wally/examples/C/simple/../common/util.h:37
    80002528:	fc442783          	lw	a5,-60(s0)
    8000252c:	873e                	mv	a4,a5
    8000252e:	fc042783          	lw	a5,-64(s0)
    80002532:	8ff9                	and	a5,a5,a4
    80002534:	2781                	sext.w	a5,a5
    80002536:	eb91                	bnez	a5,8000254a <verifyDouble+0xb8>
/home/jstine/riscv-wally/examples/C/simple/../common/util.h:37 (discriminator 1)
    80002538:	fec42783          	lw	a5,-20(s0)
    8000253c:	2785                	addiw	a5,a5,1
    8000253e:	2781                	sext.w	a5,a5
    80002540:	fc442703          	lw	a4,-60(s0)
    80002544:	9fb9                	addw	a5,a5,a4
    80002546:	2781                	sext.w	a5,a5
    80002548:	a09d                	j	800025ae <verifyDouble+0x11c>
/home/jstine/riscv-wally/examples/C/simple/../common/util.h:32 (discriminator 2)
    8000254a:	fec42783          	lw	a5,-20(s0)
    8000254e:	2789                	addiw	a5,a5,2
    80002550:	fef42623          	sw	a5,-20(s0)
/home/jstine/riscv-wally/examples/C/simple/../common/util.h:32 (discriminator 1)
    80002554:	fbc42783          	lw	a5,-68(s0)
    80002558:	01f7d71b          	srliw	a4,a5,0x1f
    8000255c:	9fb9                	addw	a5,a5,a4
    8000255e:	4017d79b          	sraiw	a5,a5,0x1
    80002562:	2781                	sext.w	a5,a5
    80002564:	0017979b          	slliw	a5,a5,0x1
    80002568:	0007871b          	sext.w	a4,a5
    8000256c:	fec42783          	lw	a5,-20(s0)
    80002570:	2781                	sext.w	a5,a5
    80002572:	f2e7cde3          	blt	a5,a4,800024ac <verifyDouble+0x1a>
/home/jstine/riscv-wally/examples/C/simple/../common/util.h:39
    80002576:	fbc42783          	lw	a5,-68(s0)
    8000257a:	8b85                	andi	a5,a5,1
    8000257c:	2781                	sext.w	a5,a5
    8000257e:	c79d                	beqz	a5,800025ac <verifyDouble+0x11a>
/home/jstine/riscv-wally/examples/C/simple/../common/util.h:39 (discriminator 1)
    80002580:	fbc42783          	lw	a5,-68(s0)
    80002584:	078e                	slli	a5,a5,0x3
    80002586:	17e1                	addi	a5,a5,-8
    80002588:	fb043703          	ld	a4,-80(s0)
    8000258c:	97ba                	add	a5,a5,a4
    8000258e:	2398                	fld	fa4,0(a5)
    80002590:	fbc42783          	lw	a5,-68(s0)
    80002594:	078e                	slli	a5,a5,0x3
    80002596:	17e1                	addi	a5,a5,-8
    80002598:	fa843703          	ld	a4,-88(s0)
    8000259c:	97ba                	add	a5,a5,a4
    8000259e:	239c                	fld	fa5,0(a5)
    800025a0:	a2f727d3          	feq.d	a5,fa4,fa5
    800025a4:	e781                	bnez	a5,800025ac <verifyDouble+0x11a>
/home/jstine/riscv-wally/examples/C/simple/../common/util.h:40
    800025a6:	fbc42783          	lw	a5,-68(s0)
    800025aa:	a011                	j	800025ae <verifyDouble+0x11c>
/home/jstine/riscv-wally/examples/C/simple/../common/util.h:41
    800025ac:	4781                	li	a5,0
/home/jstine/riscv-wally/examples/C/simple/../common/util.h:42
    800025ae:	853e                	mv	a0,a5
    800025b0:	6466                	ld	s0,88(sp)
    800025b2:	6125                	addi	sp,sp,96
    800025b4:	8082                	ret

00000000800025b6 <barrier>:
barrier():
/home/jstine/riscv-wally/examples/C/simple/../common/util.h:45
    800025b6:	1101                	addi	sp,sp,-32
    800025b8:	ec22                	sd	s0,24(sp)
    800025ba:	1000                	addi	s0,sp,32
    800025bc:	87aa                	mv	a5,a0
    800025be:	fef42623          	sw	a5,-20(s0)
/home/jstine/riscv-wally/examples/C/simple/../common/util.h:50
    800025c2:	0ff0000f          	fence
/home/jstine/riscv-wally/examples/C/simple/../common/util.h:52
    800025c6:	04022783          	lw	a5,64(tp) # 40 <threadsense.5>
    800025ca:	0017b793          	seqz	a5,a5
    800025ce:	0ff7f793          	zext.b	a5,a5
    800025d2:	0007871b          	sext.w	a4,a5
    800025d6:	04e22023          	sw	a4,64(tp) # 40 <threadsense.5>
/home/jstine/riscv-wally/examples/C/simple/../common/util.h:53
    800025da:	00001797          	auipc	a5,0x1
    800025de:	19678793          	addi	a5,a5,406 # 80003770 <count.2>
    800025e2:	4705                	li	a4,1
    800025e4:	0f50000f          	fence	iorw,ow
    800025e8:	04e7a6af          	amoadd.w.aq	a3,a4,(a5)
    800025ec:	0006879b          	sext.w	a5,a3
    800025f0:	0007871b          	sext.w	a4,a5
    800025f4:	fec42783          	lw	a5,-20(s0)
    800025f8:	37fd                	addiw	a5,a5,-1
    800025fa:	2781                	sext.w	a5,a5
    800025fc:	02f71063          	bne	a4,a5,8000261c <barrier+0x66>
/home/jstine/riscv-wally/examples/C/simple/../common/util.h:55
    80002600:	00001797          	auipc	a5,0x1
    80002604:	17078793          	addi	a5,a5,368 # 80003770 <count.2>
    80002608:	0007a023          	sw	zero,0(a5)
/home/jstine/riscv-wally/examples/C/simple/../common/util.h:56
    8000260c:	04022703          	lw	a4,64(tp) # 40 <threadsense.5>
    80002610:	00001797          	auipc	a5,0x1
    80002614:	16478793          	addi	a5,a5,356 # 80003774 <sense.1>
    80002618:	c398                	sw	a4,0(a5)
    8000261a:	a829                	j	80002634 <barrier+0x7e>
/home/jstine/riscv-wally/examples/C/simple/../common/util.h:58
    8000261c:	0001                	nop
/home/jstine/riscv-wally/examples/C/simple/../common/util.h:58 (discriminator 1)
    8000261e:	00001797          	auipc	a5,0x1
    80002622:	15678793          	addi	a5,a5,342 # 80003774 <sense.1>
    80002626:	439c                	lw	a5,0(a5)
    80002628:	0007871b          	sext.w	a4,a5
    8000262c:	04022783          	lw	a5,64(tp) # 40 <threadsense.5>
    80002630:	fef717e3          	bne	a4,a5,8000261e <barrier+0x68>
/home/jstine/riscv-wally/examples/C/simple/../common/util.h:61
    80002634:	0ff0000f          	fence
/home/jstine/riscv-wally/examples/C/simple/../common/util.h:62
    80002638:	0001                	nop
    8000263a:	6462                	ld	s0,24(sp)
    8000263c:	6105                	addi	sp,sp,32
    8000263e:	8082                	ret

0000000080002640 <lfsr>:
lfsr():
/home/jstine/riscv-wally/examples/C/simple/../common/util.h:65
    80002640:	7179                	addi	sp,sp,-48
    80002642:	f422                	sd	s0,40(sp)
    80002644:	1800                	addi	s0,sp,48
    80002646:	fca43c23          	sd	a0,-40(s0)
/home/jstine/riscv-wally/examples/C/simple/../common/util.h:66
    8000264a:	fd843783          	ld	a5,-40(s0)
    8000264e:	0017d713          	srli	a4,a5,0x1
    80002652:	fd843783          	ld	a5,-40(s0)
    80002656:	8fb9                	xor	a5,a5,a4
    80002658:	8b85                	andi	a5,a5,1
    8000265a:	fef43423          	sd	a5,-24(s0)
/home/jstine/riscv-wally/examples/C/simple/../common/util.h:67
    8000265e:	fd843783          	ld	a5,-40(s0)
    80002662:	0017d713          	srli	a4,a5,0x1
    80002666:	fe843783          	ld	a5,-24(s0)
    8000266a:	17fa                	slli	a5,a5,0x3e
    8000266c:	8fd9                	or	a5,a5,a4
/home/jstine/riscv-wally/examples/C/simple/../common/util.h:68
    8000266e:	853e                	mv	a0,a5
    80002670:	7422                	ld	s0,40(sp)
    80002672:	6145                	addi	sp,sp,48
    80002674:	8082                	ret

0000000080002676 <insn_len>:
insn_len():
/home/jstine/riscv-wally/examples/C/simple/../common/util.h:71
    80002676:	1101                	addi	sp,sp,-32
    80002678:	ec22                	sd	s0,24(sp)
    8000267a:	1000                	addi	s0,sp,32
    8000267c:	fea43423          	sd	a0,-24(s0)
/home/jstine/riscv-wally/examples/C/simple/../common/util.h:72
    80002680:	fe843783          	ld	a5,-24(s0)
    80002684:	0007d783          	lhu	a5,0(a5)
    80002688:	2781                	sext.w	a5,a5
    8000268a:	8b8d                	andi	a5,a5,3
    8000268c:	2781                	sext.w	a5,a5
    8000268e:	c399                	beqz	a5,80002694 <insn_len+0x1e>
/home/jstine/riscv-wally/examples/C/simple/../common/util.h:72 (discriminator 1)
    80002690:	4791                	li	a5,4
    80002692:	a011                	j	80002696 <insn_len+0x20>
/home/jstine/riscv-wally/examples/C/simple/../common/util.h:72 (discriminator 2)
    80002694:	4789                	li	a5,2
/home/jstine/riscv-wally/examples/C/simple/../common/util.h:73 (discriminator 5)
    80002696:	853e                	mv	a0,a5
    80002698:	6462                	ld	s0,24(sp)
    8000269a:	6105                	addi	sp,sp,32
    8000269c:	8082                	ret

000000008000269e <syscall>:
syscall():
/home/jstine/riscv-wally/examples/C/simple/../common/syscalls.c:19
    8000269e:	7171                	addi	sp,sp,-176
    800026a0:	f522                	sd	s0,168(sp)
    800026a2:	1900                	addi	s0,sp,176
    800026a4:	f6a43c23          	sd	a0,-136(s0)
    800026a8:	f6b43823          	sd	a1,-144(s0)
    800026ac:	f6c43423          	sd	a2,-152(s0)
    800026b0:	f6d43023          	sd	a3,-160(s0)
    800026b4:	ff040793          	addi	a5,s0,-16
    800026b8:	f4f43c23          	sd	a5,-168(s0)
    800026bc:	f5843783          	ld	a5,-168(s0)
    800026c0:	f9078793          	addi	a5,a5,-112
    800026c4:	03f78793          	addi	a5,a5,63
    800026c8:	8399                	srli	a5,a5,0x6
    800026ca:	079a                	slli	a5,a5,0x6
/home/jstine/riscv-wally/examples/C/simple/../common/syscalls.c:21
    800026cc:	f7843703          	ld	a4,-136(s0)
    800026d0:	e398                	sd	a4,0(a5)
/home/jstine/riscv-wally/examples/C/simple/../common/syscalls.c:22
    800026d2:	f7043703          	ld	a4,-144(s0)
    800026d6:	e798                	sd	a4,8(a5)
/home/jstine/riscv-wally/examples/C/simple/../common/syscalls.c:23
    800026d8:	f6843703          	ld	a4,-152(s0)
    800026dc:	eb98                	sd	a4,16(a5)
/home/jstine/riscv-wally/examples/C/simple/../common/syscalls.c:24
    800026de:	f6043703          	ld	a4,-160(s0)
    800026e2:	ef98                	sd	a4,24(a5)
/home/jstine/riscv-wally/examples/C/simple/../common/syscalls.c:25
    800026e4:	0ff0000f          	fence
/home/jstine/riscv-wally/examples/C/simple/../common/syscalls.c:27
    800026e8:	86be                	mv	a3,a5
    800026ea:	fffff717          	auipc	a4,0xfffff
    800026ee:	91670713          	addi	a4,a4,-1770 # 80001000 <tohost>
    800026f2:	e314                	sd	a3,0(a4)
/home/jstine/riscv-wally/examples/C/simple/../common/syscalls.c:28
    800026f4:	0001                	nop
/home/jstine/riscv-wally/examples/C/simple/../common/syscalls.c:28 (discriminator 1)
    800026f6:	fffff717          	auipc	a4,0xfffff
    800026fa:	94a70713          	addi	a4,a4,-1718 # 80001040 <fromhost>
    800026fe:	6318                	ld	a4,0(a4)
    80002700:	db7d                	beqz	a4,800026f6 <syscall+0x58>
/home/jstine/riscv-wally/examples/C/simple/../common/syscalls.c:30
    80002702:	fffff717          	auipc	a4,0xfffff
    80002706:	93e70713          	addi	a4,a4,-1730 # 80001040 <fromhost>
    8000270a:	00073023          	sd	zero,0(a4)
/home/jstine/riscv-wally/examples/C/simple/../common/syscalls.c:32
    8000270e:	0ff0000f          	fence
/home/jstine/riscv-wally/examples/C/simple/../common/syscalls.c:33
    80002712:	639c                	ld	a5,0(a5)
/home/jstine/riscv-wally/examples/C/simple/../common/syscalls.c:34
    80002714:	853e                	mv	a0,a5
    80002716:	742a                	ld	s0,168(sp)
    80002718:	614d                	addi	sp,sp,176
    8000271a:	8082                	ret

000000008000271c <setStats>:
setStats():
/home/jstine/riscv-wally/examples/C/simple/../common/syscalls.c:41
    8000271c:	715d                	addi	sp,sp,-80
    8000271e:	e4a2                	sd	s0,72(sp)
    80002720:	0880                	addi	s0,sp,80
    80002722:	87aa                	mv	a5,a0
    80002724:	faf42e23          	sw	a5,-68(s0)
/home/jstine/riscv-wally/examples/C/simple/../common/syscalls.c:42
    80002728:	fc042e23          	sw	zero,-36(s0)
/home/jstine/riscv-wally/examples/C/simple/../common/syscalls.c:50
    8000272c:	0001                	nop
/home/jstine/riscv-wally/examples/C/simple/../common/syscalls.c:50 (discriminator 1)
    8000272e:	fdc42783          	lw	a5,-36(s0)
    80002732:	0007871b          	sext.w	a4,a5
    80002736:	4785                	li	a5,1
    80002738:	fee7cbe3          	blt	a5,a4,8000272e <setStats+0x12>
/home/jstine/riscv-wally/examples/C/simple/../common/syscalls.c:50 (discriminator 2)
    8000273c:	b00027f3          	csrr	a5,mcycle
    80002740:	fcf43823          	sd	a5,-48(s0)
    80002744:	fd043783          	ld	a5,-48(s0)
    80002748:	fef43423          	sd	a5,-24(s0)
    8000274c:	fbc42783          	lw	a5,-68(s0)
    80002750:	2781                	sext.w	a5,a5
    80002752:	ef8d                	bnez	a5,8000278c <setStats+0x70>
/home/jstine/riscv-wally/examples/C/simple/../common/syscalls.c:50 (discriminator 3)
    80002754:	00001717          	auipc	a4,0x1
    80002758:	ffc70713          	addi	a4,a4,-4 # 80003750 <counters>
    8000275c:	fdc42783          	lw	a5,-36(s0)
    80002760:	078e                	slli	a5,a5,0x3
    80002762:	97ba                	add	a5,a5,a4
    80002764:	639c                	ld	a5,0(a5)
    80002766:	fe843703          	ld	a4,-24(s0)
    8000276a:	40f707b3          	sub	a5,a4,a5
    8000276e:	fef43423          	sd	a5,-24(s0)
    80002772:	00001717          	auipc	a4,0x1
    80002776:	fee70713          	addi	a4,a4,-18 # 80003760 <counter_names>
    8000277a:	fdc42783          	lw	a5,-36(s0)
    8000277e:	078e                	slli	a5,a5,0x3
    80002780:	97ba                	add	a5,a5,a4
    80002782:	00001717          	auipc	a4,0x1
    80002786:	e2670713          	addi	a4,a4,-474 # 800035a8 <atol+0xe8>
    8000278a:	e398                	sd	a4,0(a5)
/home/jstine/riscv-wally/examples/C/simple/../common/syscalls.c:50 (discriminator 5)
    8000278c:	fdc42783          	lw	a5,-36(s0)
    80002790:	0017871b          	addiw	a4,a5,1
    80002794:	fce42e23          	sw	a4,-36(s0)
    80002798:	00001717          	auipc	a4,0x1
    8000279c:	fb870713          	addi	a4,a4,-72 # 80003750 <counters>
    800027a0:	078e                	slli	a5,a5,0x3
    800027a2:	97ba                	add	a5,a5,a4
    800027a4:	fe843703          	ld	a4,-24(s0)
    800027a8:	e398                	sd	a4,0(a5)
/home/jstine/riscv-wally/examples/C/simple/../common/syscalls.c:51 (discriminator 5)
    800027aa:	0001                	nop
/home/jstine/riscv-wally/examples/C/simple/../common/syscalls.c:51 (discriminator 1)
    800027ac:	fdc42783          	lw	a5,-36(s0)
    800027b0:	0007871b          	sext.w	a4,a5
    800027b4:	4785                	li	a5,1
    800027b6:	fee7cbe3          	blt	a5,a4,800027ac <setStats+0x90>
/home/jstine/riscv-wally/examples/C/simple/../common/syscalls.c:51 (discriminator 2)
    800027ba:	b02027f3          	csrr	a5,minstret
    800027be:	fcf43423          	sd	a5,-56(s0)
    800027c2:	fc843783          	ld	a5,-56(s0)
    800027c6:	fef43023          	sd	a5,-32(s0)
    800027ca:	fbc42783          	lw	a5,-68(s0)
    800027ce:	2781                	sext.w	a5,a5
    800027d0:	ef8d                	bnez	a5,8000280a <setStats+0xee>
/home/jstine/riscv-wally/examples/C/simple/../common/syscalls.c:51 (discriminator 3)
    800027d2:	00001717          	auipc	a4,0x1
    800027d6:	f7e70713          	addi	a4,a4,-130 # 80003750 <counters>
    800027da:	fdc42783          	lw	a5,-36(s0)
    800027de:	078e                	slli	a5,a5,0x3
    800027e0:	97ba                	add	a5,a5,a4
    800027e2:	639c                	ld	a5,0(a5)
    800027e4:	fe043703          	ld	a4,-32(s0)
    800027e8:	40f707b3          	sub	a5,a4,a5
    800027ec:	fef43023          	sd	a5,-32(s0)
    800027f0:	00001717          	auipc	a4,0x1
    800027f4:	f7070713          	addi	a4,a4,-144 # 80003760 <counter_names>
    800027f8:	fdc42783          	lw	a5,-36(s0)
    800027fc:	078e                	slli	a5,a5,0x3
    800027fe:	97ba                	add	a5,a5,a4
    80002800:	00001717          	auipc	a4,0x1
    80002804:	db070713          	addi	a4,a4,-592 # 800035b0 <atol+0xf0>
    80002808:	e398                	sd	a4,0(a5)
/home/jstine/riscv-wally/examples/C/simple/../common/syscalls.c:51 (discriminator 5)
    8000280a:	fdc42783          	lw	a5,-36(s0)
    8000280e:	0017871b          	addiw	a4,a5,1
    80002812:	fce42e23          	sw	a4,-36(s0)
    80002816:	00001717          	auipc	a4,0x1
    8000281a:	f3a70713          	addi	a4,a4,-198 # 80003750 <counters>
    8000281e:	078e                	slli	a5,a5,0x3
    80002820:	97ba                	add	a5,a5,a4
    80002822:	fe043703          	ld	a4,-32(s0)
    80002826:	e398                	sd	a4,0(a5)
/home/jstine/riscv-wally/examples/C/simple/../common/syscalls.c:54 (discriminator 5)
    80002828:	0001                	nop
    8000282a:	6426                	ld	s0,72(sp)
    8000282c:	6161                	addi	sp,sp,80
    8000282e:	8082                	ret

0000000080002830 <tohost_exit>:
tohost_exit():
/home/jstine/riscv-wally/examples/C/simple/../common/syscalls.c:57
    80002830:	1101                	addi	sp,sp,-32
    80002832:	ec22                	sd	s0,24(sp)
    80002834:	1000                	addi	s0,sp,32
    80002836:	fea43423          	sd	a0,-24(s0)
/home/jstine/riscv-wally/examples/C/simple/../common/syscalls.c:58
    8000283a:	fe843783          	ld	a5,-24(s0)
    8000283e:	0786                	slli	a5,a5,0x1
    80002840:	0017e713          	ori	a4,a5,1
    80002844:	ffffe797          	auipc	a5,0xffffe
    80002848:	7bc78793          	addi	a5,a5,1980 # 80001000 <tohost>
    8000284c:	e398                	sd	a4,0(a5)
/home/jstine/riscv-wally/examples/C/simple/../common/syscalls.c:59 (discriminator 1)
    8000284e:	a001                	j	8000284e <tohost_exit+0x1e>

0000000080002850 <handle_trap>:
handle_trap():
/home/jstine/riscv-wally/examples/C/simple/../common/syscalls.c:63
    80002850:	7179                	addi	sp,sp,-48
    80002852:	f406                	sd	ra,40(sp)
    80002854:	f022                	sd	s0,32(sp)
    80002856:	1800                	addi	s0,sp,48
    80002858:	fea43423          	sd	a0,-24(s0)
    8000285c:	feb43023          	sd	a1,-32(s0)
    80002860:	fcc43c23          	sd	a2,-40(s0)
/home/jstine/riscv-wally/examples/C/simple/../common/syscalls.c:64
    80002864:	53900513          	li	a0,1337
    80002868:	fc9ff0ef          	jal	ra,80002830 <tohost_exit>

000000008000286c <exit>:
exit():
/home/jstine/riscv-wally/examples/C/simple/../common/syscalls.c:68
    8000286c:	1101                	addi	sp,sp,-32
    8000286e:	ec06                	sd	ra,24(sp)
    80002870:	e822                	sd	s0,16(sp)
    80002872:	1000                	addi	s0,sp,32
    80002874:	87aa                	mv	a5,a0
    80002876:	fef42623          	sw	a5,-20(s0)
/home/jstine/riscv-wally/examples/C/simple/../common/syscalls.c:69
    8000287a:	fec42783          	lw	a5,-20(s0)
    8000287e:	853e                	mv	a0,a5
    80002880:	fb1ff0ef          	jal	ra,80002830 <tohost_exit>

0000000080002884 <abort>:
abort():
/home/jstine/riscv-wally/examples/C/simple/../common/syscalls.c:73
    80002884:	1141                	addi	sp,sp,-16
    80002886:	e406                	sd	ra,8(sp)
    80002888:	e022                	sd	s0,0(sp)
    8000288a:	0800                	addi	s0,sp,16
/home/jstine/riscv-wally/examples/C/simple/../common/syscalls.c:74
    8000288c:	08600513          	li	a0,134
    80002890:	fddff0ef          	jal	ra,8000286c <exit>

0000000080002894 <printstr>:
printstr():
/home/jstine/riscv-wally/examples/C/simple/../common/syscalls.c:78
    80002894:	7179                	addi	sp,sp,-48
    80002896:	f406                	sd	ra,40(sp)
    80002898:	f022                	sd	s0,32(sp)
    8000289a:	ec26                	sd	s1,24(sp)
    8000289c:	1800                	addi	s0,sp,48
    8000289e:	fca43c23          	sd	a0,-40(s0)
/home/jstine/riscv-wally/examples/C/simple/../common/syscalls.c:79
    800028a2:	fd843483          	ld	s1,-40(s0)
    800028a6:	fd843503          	ld	a0,-40(s0)
    800028aa:	2d1000ef          	jal	ra,8000337a <strlen>
    800028ae:	87aa                	mv	a5,a0
    800028b0:	86be                	mv	a3,a5
    800028b2:	8626                	mv	a2,s1
    800028b4:	4585                	li	a1,1
    800028b6:	04000513          	li	a0,64
    800028ba:	de5ff0ef          	jal	ra,8000269e <syscall>
/home/jstine/riscv-wally/examples/C/simple/../common/syscalls.c:80
    800028be:	0001                	nop
    800028c0:	70a2                	ld	ra,40(sp)
    800028c2:	7402                	ld	s0,32(sp)
    800028c4:	64e2                	ld	s1,24(sp)
    800028c6:	6145                	addi	sp,sp,48
    800028c8:	8082                	ret

00000000800028ca <thread_entry>:
thread_entry():
/home/jstine/riscv-wally/examples/C/simple/../common/syscalls.c:83
    800028ca:	1101                	addi	sp,sp,-32
    800028cc:	ec22                	sd	s0,24(sp)
    800028ce:	1000                	addi	s0,sp,32
    800028d0:	87aa                	mv	a5,a0
    800028d2:	872e                	mv	a4,a1
    800028d4:	fef42623          	sw	a5,-20(s0)
    800028d8:	87ba                	mv	a5,a4
    800028da:	fef42423          	sw	a5,-24(s0)
/home/jstine/riscv-wally/examples/C/simple/../common/syscalls.c:86
    800028de:	0001                	nop
/home/jstine/riscv-wally/examples/C/simple/../common/syscalls.c:86 (discriminator 1)
    800028e0:	fec42783          	lw	a5,-20(s0)
    800028e4:	2781                	sext.w	a5,a5
    800028e6:	ffed                	bnez	a5,800028e0 <thread_entry+0x16>
/home/jstine/riscv-wally/examples/C/simple/../common/syscalls.c:87
    800028e8:	0001                	nop
    800028ea:	0001                	nop
    800028ec:	6462                	ld	s0,24(sp)
    800028ee:	6105                	addi	sp,sp,32
    800028f0:	8082                	ret
main():
/home/jstine/riscv-wally/examples/C/simple/../common/syscalls.c:90
    800028f2:	1101                	addi	sp,sp,-32
    800028f4:	ec06                	sd	ra,24(sp)
    800028f6:	e822                	sd	s0,16(sp)
    800028f8:	1000                	addi	s0,sp,32
    800028fa:	87aa                	mv	a5,a0
    800028fc:	feb43023          	sd	a1,-32(s0)
    80002900:	fef42623          	sw	a5,-20(s0)
/home/jstine/riscv-wally/examples/C/simple/../common/syscalls.c:92
    80002904:	00001517          	auipc	a0,0x1
    80002908:	cbc50513          	addi	a0,a0,-836 # 800035c0 <atol+0x100>
    8000290c:	f89ff0ef          	jal	ra,80002894 <printstr>
/home/jstine/riscv-wally/examples/C/simple/../common/syscalls.c:93
    80002910:	57fd                	li	a5,-1
/home/jstine/riscv-wally/examples/C/simple/../common/syscalls.c:94
    80002912:	853e                	mv	a0,a5
    80002914:	60e2                	ld	ra,24(sp)
    80002916:	6442                	ld	s0,16(sp)
    80002918:	6105                	addi	sp,sp,32
    8000291a:	8082                	ret

000000008000291c <init_tls>:
init_tls():
/home/jstine/riscv-wally/examples/C/simple/../common/syscalls.c:97
    8000291c:	1101                	addi	sp,sp,-32
    8000291e:	ec06                	sd	ra,24(sp)
    80002920:	e822                	sd	s0,16(sp)
    80002922:	1000                	addi	s0,sp,32
/home/jstine/riscv-wally/examples/C/simple/../common/syscalls.c:100
    80002924:	00001717          	auipc	a4,0x1
    80002928:	e5470713          	addi	a4,a4,-428 # 80003778 <_tdata_begin>
    8000292c:	00001797          	auipc	a5,0x1
    80002930:	e4c78793          	addi	a5,a5,-436 # 80003778 <_tdata_begin>
    80002934:	40f707b3          	sub	a5,a4,a5
    80002938:	fef43423          	sd	a5,-24(s0)
/home/jstine/riscv-wally/examples/C/simple/../common/syscalls.c:101
    8000293c:	8792                	mv	a5,tp
    8000293e:	fe843603          	ld	a2,-24(s0)
    80002942:	00001597          	auipc	a1,0x1
    80002946:	e3658593          	addi	a1,a1,-458 # 80003778 <_tdata_begin>
    8000294a:	853e                	mv	a0,a5
    8000294c:	0a9000ef          	jal	ra,800031f4 <memcpy>
/home/jstine/riscv-wally/examples/C/simple/../common/syscalls.c:102
    80002950:	8fc18713          	addi	a4,gp,-1796 # 80003844 <_tbss_end>
    80002954:	00001797          	auipc	a5,0x1
    80002958:	e2478793          	addi	a5,a5,-476 # 80003778 <_tdata_begin>
    8000295c:	40f707b3          	sub	a5,a4,a5
    80002960:	fef43023          	sd	a5,-32(s0)
/home/jstine/riscv-wally/examples/C/simple/../common/syscalls.c:103
    80002964:	8712                	mv	a4,tp
    80002966:	fe843783          	ld	a5,-24(s0)
    8000296a:	97ba                	add	a5,a5,a4
    8000296c:	fe043603          	ld	a2,-32(s0)
    80002970:	4581                	li	a1,0
    80002972:	853e                	mv	a0,a5
    80002974:	139000ef          	jal	ra,800032ac <memset>
/home/jstine/riscv-wally/examples/C/simple/../common/syscalls.c:104
    80002978:	0001                	nop
    8000297a:	60e2                	ld	ra,24(sp)
    8000297c:	6442                	ld	s0,16(sp)
    8000297e:	6105                	addi	sp,sp,32
    80002980:	8082                	ret

0000000080002982 <_init>:
_init():
/home/jstine/riscv-wally/examples/C/simple/../common/syscalls.c:107
    80002982:	7171                	addi	sp,sp,-176
    80002984:	f506                	sd	ra,168(sp)
    80002986:	f122                	sd	s0,160(sp)
    80002988:	ed26                	sd	s1,152(sp)
    8000298a:	1900                	addi	s0,sp,176
    8000298c:	87aa                	mv	a5,a0
    8000298e:	872e                	mv	a4,a1
    80002990:	f4f42e23          	sw	a5,-164(s0)
    80002994:	87ba                	mv	a5,a4
    80002996:	f4f42c23          	sw	a5,-168(s0)
    8000299a:	fe040793          	addi	a5,s0,-32
    8000299e:	f4f43823          	sd	a5,-176(s0)
    800029a2:	f5043783          	ld	a5,-176(s0)
    800029a6:	f8078793          	addi	a5,a5,-128
    800029aa:	03f78793          	addi	a5,a5,63
    800029ae:	8399                	srli	a5,a5,0x6
    800029b0:	00679493          	slli	s1,a5,0x6
/home/jstine/riscv-wally/examples/C/simple/../common/syscalls.c:108
    800029b4:	f69ff0ef          	jal	ra,8000291c <init_tls>
/home/jstine/riscv-wally/examples/C/simple/../common/syscalls.c:109
    800029b8:	f5842703          	lw	a4,-168(s0)
    800029bc:	f5c42783          	lw	a5,-164(s0)
    800029c0:	85ba                	mv	a1,a4
    800029c2:	853e                	mv	a0,a5
    800029c4:	f07ff0ef          	jal	ra,800028ca <thread_entry>
/home/jstine/riscv-wally/examples/C/simple/../common/syscalls.c:112
    800029c8:	4581                	li	a1,0
    800029ca:	4501                	li	a0,0
    800029cc:	96dff0ef          	jal	ra,80002338 <main>
    800029d0:	87aa                	mv	a5,a0
    800029d2:	fcf42823          	sw	a5,-48(s0)
/home/jstine/riscv-wally/examples/C/simple/../common/syscalls.c:115
    800029d6:	fc943c23          	sd	s1,-40(s0)
/home/jstine/riscv-wally/examples/C/simple/../common/syscalls.c:116
    800029da:	fc042a23          	sw	zero,-44(s0)
    800029de:	a095                	j	80002a42 <_init+0xc0>
/home/jstine/riscv-wally/examples/C/simple/../common/syscalls.c:117
    800029e0:	00001717          	auipc	a4,0x1
    800029e4:	d7070713          	addi	a4,a4,-656 # 80003750 <counters>
    800029e8:	fd442783          	lw	a5,-44(s0)
    800029ec:	078e                	slli	a5,a5,0x3
    800029ee:	97ba                	add	a5,a5,a4
    800029f0:	639c                	ld	a5,0(a5)
    800029f2:	c3b9                	beqz	a5,80002a38 <_init+0xb6>
/home/jstine/riscv-wally/examples/C/simple/../common/syscalls.c:118
    800029f4:	00001717          	auipc	a4,0x1
    800029f8:	d6c70713          	addi	a4,a4,-660 # 80003760 <counter_names>
    800029fc:	fd442783          	lw	a5,-44(s0)
    80002a00:	078e                	slli	a5,a5,0x3
    80002a02:	97ba                	add	a5,a5,a4
    80002a04:	6390                	ld	a2,0(a5)
    80002a06:	00001717          	auipc	a4,0x1
    80002a0a:	d4a70713          	addi	a4,a4,-694 # 80003750 <counters>
    80002a0e:	fd442783          	lw	a5,-44(s0)
    80002a12:	078e                	slli	a5,a5,0x3
    80002a14:	97ba                	add	a5,a5,a4
    80002a16:	639c                	ld	a5,0(a5)
    80002a18:	86be                	mv	a3,a5
    80002a1a:	00001597          	auipc	a1,0x1
    80002a1e:	bbe58593          	addi	a1,a1,-1090 # 800035d8 <atol+0x118>
    80002a22:	fd843503          	ld	a0,-40(s0)
    80002a26:	70c000ef          	jal	ra,80003132 <sprintf>
    80002a2a:	87aa                	mv	a5,a0
    80002a2c:	873e                	mv	a4,a5
    80002a2e:	fd843783          	ld	a5,-40(s0)
    80002a32:	97ba                	add	a5,a5,a4
    80002a34:	fcf43c23          	sd	a5,-40(s0)
/home/jstine/riscv-wally/examples/C/simple/../common/syscalls.c:116 (discriminator 2)
    80002a38:	fd442783          	lw	a5,-44(s0)
    80002a3c:	2785                	addiw	a5,a5,1
    80002a3e:	fcf42a23          	sw	a5,-44(s0)
/home/jstine/riscv-wally/examples/C/simple/../common/syscalls.c:116 (discriminator 1)
    80002a42:	fd442783          	lw	a5,-44(s0)
    80002a46:	0007871b          	sext.w	a4,a5
    80002a4a:	4785                	li	a5,1
    80002a4c:	f8e7dae3          	bge	a5,a4,800029e0 <_init+0x5e>
/home/jstine/riscv-wally/examples/C/simple/../common/syscalls.c:119
    80002a50:	fd843783          	ld	a5,-40(s0)
    80002a54:	00f48563          	beq	s1,a5,80002a5e <_init+0xdc>
/home/jstine/riscv-wally/examples/C/simple/../common/syscalls.c:120
    80002a58:	8526                	mv	a0,s1
    80002a5a:	e3bff0ef          	jal	ra,80002894 <printstr>
/home/jstine/riscv-wally/examples/C/simple/../common/syscalls.c:122
    80002a5e:	fd042783          	lw	a5,-48(s0)
    80002a62:	853e                	mv	a0,a5
    80002a64:	e09ff0ef          	jal	ra,8000286c <exit>

0000000080002a68 <putchar>:
putchar():
/home/jstine/riscv-wally/examples/C/simple/../common/syscalls.c:127
    80002a68:	1101                	addi	sp,sp,-32
    80002a6a:	ec06                	sd	ra,24(sp)
    80002a6c:	e822                	sd	s0,16(sp)
    80002a6e:	1000                	addi	s0,sp,32
    80002a70:	87aa                	mv	a5,a0
    80002a72:	fef42623          	sw	a5,-20(s0)
/home/jstine/riscv-wally/examples/C/simple/../common/syscalls.c:131
    80002a76:	0c022783          	lw	a5,192(tp) # c0 <buflen.3>
    80002a7a:	0017871b          	addiw	a4,a5,1
    80002a7e:	0007069b          	sext.w	a3,a4
    80002a82:	0cd22023          	sw	a3,192(tp) # c0 <buflen.3>
    80002a86:	fec42703          	lw	a4,-20(s0)
    80002a8a:	0ff77713          	zext.b	a4,a4
    80002a8e:	08020693          	addi	a3,tp,128 # 80 <buf.4>
    80002a92:	97b6                	add	a5,a5,a3
    80002a94:	00e78023          	sb	a4,0(a5)
/home/jstine/riscv-wally/examples/C/simple/../common/syscalls.c:133
    80002a98:	fec42783          	lw	a5,-20(s0)
    80002a9c:	0007871b          	sext.w	a4,a5
    80002aa0:	47a9                	li	a5,10
    80002aa2:	00f70963          	beq	a4,a5,80002ab4 <putchar+0x4c>
/home/jstine/riscv-wally/examples/C/simple/../common/syscalls.c:133 (discriminator 1)
    80002aa6:	0c022783          	lw	a5,192(tp) # c0 <buflen.3>
    80002aaa:	873e                	mv	a4,a5
    80002aac:	04000793          	li	a5,64
    80002ab0:	00f71f63          	bne	a4,a5,80002ace <putchar+0x66>
/home/jstine/riscv-wally/examples/C/simple/../common/syscalls.c:135
    80002ab4:	08020713          	addi	a4,tp,128 # 80 <buf.4>
    80002ab8:	0c022783          	lw	a5,192(tp) # c0 <buflen.3>
    80002abc:	86be                	mv	a3,a5
    80002abe:	863a                	mv	a2,a4
    80002ac0:	4585                	li	a1,1
    80002ac2:	04000513          	li	a0,64
    80002ac6:	bd9ff0ef          	jal	ra,8000269e <syscall>
/home/jstine/riscv-wally/examples/C/simple/../common/syscalls.c:136
    80002aca:	0c022023          	sw	zero,192(tp) # c0 <buflen.3>
/home/jstine/riscv-wally/examples/C/simple/../common/syscalls.c:139
    80002ace:	4781                	li	a5,0
/home/jstine/riscv-wally/examples/C/simple/../common/syscalls.c:140
    80002ad0:	853e                	mv	a0,a5
    80002ad2:	60e2                	ld	ra,24(sp)
    80002ad4:	6442                	ld	s0,16(sp)
    80002ad6:	6105                	addi	sp,sp,32
    80002ad8:	8082                	ret

0000000080002ada <printhex>:
printhex():
/home/jstine/riscv-wally/examples/C/simple/../common/syscalls.c:143
    80002ada:	7139                	addi	sp,sp,-64
    80002adc:	fc06                	sd	ra,56(sp)
    80002ade:	f822                	sd	s0,48(sp)
    80002ae0:	0080                	addi	s0,sp,64
    80002ae2:	fca43423          	sd	a0,-56(s0)
/home/jstine/riscv-wally/examples/C/simple/../common/syscalls.c:146
    80002ae6:	fe042623          	sw	zero,-20(s0)
    80002aea:	a899                	j	80002b40 <printhex+0x66>
/home/jstine/riscv-wally/examples/C/simple/../common/syscalls.c:148
    80002aec:	fc843783          	ld	a5,-56(s0)
    80002af0:	0ff7f793          	zext.b	a5,a5
    80002af4:	8bbd                	andi	a5,a5,15
    80002af6:	0ff7f713          	zext.b	a4,a5
    80002afa:	fc843783          	ld	a5,-56(s0)
    80002afe:	00f7f693          	andi	a3,a5,15
    80002b02:	47a5                	li	a5,9
    80002b04:	00d7e563          	bltu	a5,a3,80002b0e <printhex+0x34>
/home/jstine/riscv-wally/examples/C/simple/../common/syscalls.c:148 (discriminator 1)
    80002b08:	03000793          	li	a5,48
    80002b0c:	a019                	j	80002b12 <printhex+0x38>
/home/jstine/riscv-wally/examples/C/simple/../common/syscalls.c:148 (discriminator 2)
    80002b0e:	05700793          	li	a5,87
/home/jstine/riscv-wally/examples/C/simple/../common/syscalls.c:148 (discriminator 4)
    80002b12:	46bd                	li	a3,15
    80002b14:	fec42603          	lw	a2,-20(s0)
    80002b18:	9e91                	subw	a3,a3,a2
    80002b1a:	2681                	sext.w	a3,a3
    80002b1c:	9fb9                	addw	a5,a5,a4
    80002b1e:	0ff7f713          	zext.b	a4,a5
    80002b22:	ff068793          	addi	a5,a3,-16
    80002b26:	97a2                	add	a5,a5,s0
    80002b28:	fee78423          	sb	a4,-24(a5)
/home/jstine/riscv-wally/examples/C/simple/../common/syscalls.c:149 (discriminator 4)
    80002b2c:	fc843783          	ld	a5,-56(s0)
    80002b30:	8391                	srli	a5,a5,0x4
    80002b32:	fcf43423          	sd	a5,-56(s0)
/home/jstine/riscv-wally/examples/C/simple/../common/syscalls.c:146 (discriminator 4)
    80002b36:	fec42783          	lw	a5,-20(s0)
    80002b3a:	2785                	addiw	a5,a5,1
    80002b3c:	fef42623          	sw	a5,-20(s0)
/home/jstine/riscv-wally/examples/C/simple/../common/syscalls.c:146 (discriminator 2)
    80002b40:	fec42783          	lw	a5,-20(s0)
    80002b44:	0007871b          	sext.w	a4,a5
    80002b48:	47bd                	li	a5,15
    80002b4a:	fae7d1e3          	bge	a5,a4,80002aec <printhex+0x12>
/home/jstine/riscv-wally/examples/C/simple/../common/syscalls.c:151
    80002b4e:	fe040423          	sb	zero,-24(s0)
/home/jstine/riscv-wally/examples/C/simple/../common/syscalls.c:153
    80002b52:	fd840793          	addi	a5,s0,-40
    80002b56:	853e                	mv	a0,a5
    80002b58:	d3dff0ef          	jal	ra,80002894 <printstr>
/home/jstine/riscv-wally/examples/C/simple/../common/syscalls.c:154
    80002b5c:	0001                	nop
    80002b5e:	70e2                	ld	ra,56(sp)
    80002b60:	7442                	ld	s0,48(sp)
    80002b62:	6121                	addi	sp,sp,64
    80002b64:	8082                	ret

0000000080002b66 <printnum>:
printnum():
/home/jstine/riscv-wally/examples/C/simple/../common/syscalls.c:158
    80002b66:	714d                	addi	sp,sp,-336
    80002b68:	e686                	sd	ra,328(sp)
    80002b6a:	e2a2                	sd	s0,320(sp)
    80002b6c:	0a80                	addi	s0,sp,336
    80002b6e:	eca43c23          	sd	a0,-296(s0)
    80002b72:	ecb43823          	sd	a1,-304(s0)
    80002b76:	ecc43423          	sd	a2,-312(s0)
    80002b7a:	8636                	mv	a2,a3
    80002b7c:	86ba                	mv	a3,a4
    80002b7e:	873e                	mv	a4,a5
    80002b80:	87b2                	mv	a5,a2
    80002b82:	ecf42223          	sw	a5,-316(s0)
    80002b86:	87b6                	mv	a5,a3
    80002b88:	ecf42023          	sw	a5,-320(s0)
    80002b8c:	87ba                	mv	a5,a4
    80002b8e:	eaf42e23          	sw	a5,-324(s0)
/home/jstine/riscv-wally/examples/C/simple/../common/syscalls.c:160
    80002b92:	fe042623          	sw	zero,-20(s0)
/home/jstine/riscv-wally/examples/C/simple/../common/syscalls.c:164
    80002b96:	ec446783          	lwu	a5,-316(s0)
    80002b9a:	ec843703          	ld	a4,-312(s0)
    80002b9e:	02f776b3          	remu	a3,a4,a5
    80002ba2:	fec42783          	lw	a5,-20(s0)
    80002ba6:	0017871b          	addiw	a4,a5,1
    80002baa:	fee42623          	sw	a4,-20(s0)
    80002bae:	0006871b          	sext.w	a4,a3
    80002bb2:	078a                	slli	a5,a5,0x2
    80002bb4:	17c1                	addi	a5,a5,-16
    80002bb6:	97a2                	add	a5,a5,s0
    80002bb8:	eee7ac23          	sw	a4,-264(a5)
/home/jstine/riscv-wally/examples/C/simple/../common/syscalls.c:165
    80002bbc:	ec446783          	lwu	a5,-316(s0)
    80002bc0:	ec843703          	ld	a4,-312(s0)
    80002bc4:	00f76b63          	bltu	a4,a5,80002bda <printnum+0x74>
/home/jstine/riscv-wally/examples/C/simple/../common/syscalls.c:167
    80002bc8:	ec446783          	lwu	a5,-316(s0)
    80002bcc:	ec843703          	ld	a4,-312(s0)
    80002bd0:	02f757b3          	divu	a5,a4,a5
    80002bd4:	ecf43423          	sd	a5,-312(s0)
/home/jstine/riscv-wally/examples/C/simple/../common/syscalls.c:164
    80002bd8:	bf7d                	j	80002b96 <printnum+0x30>
/home/jstine/riscv-wally/examples/C/simple/../common/syscalls.c:166
    80002bda:	0001                	nop
/home/jstine/riscv-wally/examples/C/simple/../common/syscalls.c:170
    80002bdc:	a809                	j	80002bee <printnum+0x88>
/home/jstine/riscv-wally/examples/C/simple/../common/syscalls.c:171
    80002bde:	ebc42783          	lw	a5,-324(s0)
    80002be2:	ed843703          	ld	a4,-296(s0)
    80002be6:	ed043583          	ld	a1,-304(s0)
    80002bea:	853e                	mv	a0,a5
    80002bec:	9702                	jalr	a4
/home/jstine/riscv-wally/examples/C/simple/../common/syscalls.c:170
    80002bee:	ec042783          	lw	a5,-320(s0)
    80002bf2:	fff7871b          	addiw	a4,a5,-1
    80002bf6:	ece42023          	sw	a4,-320(s0)
    80002bfa:	fec42703          	lw	a4,-20(s0)
    80002bfe:	2701                	sext.w	a4,a4
    80002c00:	fcf74fe3          	blt	a4,a5,80002bde <printnum+0x78>
/home/jstine/riscv-wally/examples/C/simple/../common/syscalls.c:173
    80002c04:	a089                	j	80002c46 <printnum+0xe0>
/home/jstine/riscv-wally/examples/C/simple/../common/syscalls.c:174
    80002c06:	fec42783          	lw	a5,-20(s0)
    80002c0a:	078a                	slli	a5,a5,0x2
    80002c0c:	17c1                	addi	a5,a5,-16
    80002c0e:	97a2                	add	a5,a5,s0
    80002c10:	ef87a703          	lw	a4,-264(a5)
    80002c14:	fec42783          	lw	a5,-20(s0)
    80002c18:	078a                	slli	a5,a5,0x2
    80002c1a:	17c1                	addi	a5,a5,-16
    80002c1c:	97a2                	add	a5,a5,s0
    80002c1e:	ef87a783          	lw	a5,-264(a5)
    80002c22:	86be                	mv	a3,a5
    80002c24:	47a5                	li	a5,9
    80002c26:	00d7f563          	bgeu	a5,a3,80002c30 <printnum+0xca>
/home/jstine/riscv-wally/examples/C/simple/../common/syscalls.c:174 (discriminator 1)
    80002c2a:	05700793          	li	a5,87
    80002c2e:	a019                	j	80002c34 <printnum+0xce>
/home/jstine/riscv-wally/examples/C/simple/../common/syscalls.c:174 (discriminator 2)
    80002c30:	03000793          	li	a5,48
/home/jstine/riscv-wally/examples/C/simple/../common/syscalls.c:174 (discriminator 4)
    80002c34:	9fb9                	addw	a5,a5,a4
    80002c36:	2781                	sext.w	a5,a5
    80002c38:	2781                	sext.w	a5,a5
    80002c3a:	ed843703          	ld	a4,-296(s0)
    80002c3e:	ed043583          	ld	a1,-304(s0)
    80002c42:	853e                	mv	a0,a5
    80002c44:	9702                	jalr	a4
/home/jstine/riscv-wally/examples/C/simple/../common/syscalls.c:173
    80002c46:	fec42783          	lw	a5,-20(s0)
    80002c4a:	fff7871b          	addiw	a4,a5,-1
    80002c4e:	fee42623          	sw	a4,-20(s0)
    80002c52:	faf04ae3          	bgtz	a5,80002c06 <printnum+0xa0>
/home/jstine/riscv-wally/examples/C/simple/../common/syscalls.c:175
    80002c56:	0001                	nop
    80002c58:	0001                	nop
    80002c5a:	60b6                	ld	ra,328(sp)
    80002c5c:	6416                	ld	s0,320(sp)
    80002c5e:	6171                	addi	sp,sp,336
    80002c60:	8082                	ret

0000000080002c62 <getuint>:
getuint():
/home/jstine/riscv-wally/examples/C/simple/../common/syscalls.c:178
    80002c62:	1101                	addi	sp,sp,-32
    80002c64:	ec22                	sd	s0,24(sp)
    80002c66:	1000                	addi	s0,sp,32
    80002c68:	fea43423          	sd	a0,-24(s0)
    80002c6c:	87ae                	mv	a5,a1
    80002c6e:	fef42223          	sw	a5,-28(s0)
/home/jstine/riscv-wally/examples/C/simple/../common/syscalls.c:179
    80002c72:	fe442783          	lw	a5,-28(s0)
    80002c76:	0007871b          	sext.w	a4,a5
    80002c7a:	4785                	li	a5,1
    80002c7c:	00e7dc63          	bge	a5,a4,80002c94 <getuint+0x32>
/home/jstine/riscv-wally/examples/C/simple/../common/syscalls.c:180
    80002c80:	fe843783          	ld	a5,-24(s0)
    80002c84:	639c                	ld	a5,0(a5)
    80002c86:	00878693          	addi	a3,a5,8
    80002c8a:	fe843703          	ld	a4,-24(s0)
    80002c8e:	e314                	sd	a3,0(a4)
    80002c90:	639c                	ld	a5,0(a5)
    80002c92:	a815                	j	80002cc6 <getuint+0x64>
/home/jstine/riscv-wally/examples/C/simple/../common/syscalls.c:181
    80002c94:	fe442783          	lw	a5,-28(s0)
    80002c98:	2781                	sext.w	a5,a5
    80002c9a:	cb99                	beqz	a5,80002cb0 <getuint+0x4e>
/home/jstine/riscv-wally/examples/C/simple/../common/syscalls.c:182
    80002c9c:	fe843783          	ld	a5,-24(s0)
    80002ca0:	639c                	ld	a5,0(a5)
    80002ca2:	00878693          	addi	a3,a5,8
    80002ca6:	fe843703          	ld	a4,-24(s0)
    80002caa:	e314                	sd	a3,0(a4)
    80002cac:	639c                	ld	a5,0(a5)
    80002cae:	a821                	j	80002cc6 <getuint+0x64>
/home/jstine/riscv-wally/examples/C/simple/../common/syscalls.c:184
    80002cb0:	fe843783          	ld	a5,-24(s0)
    80002cb4:	639c                	ld	a5,0(a5)
    80002cb6:	00878693          	addi	a3,a5,8
    80002cba:	fe843703          	ld	a4,-24(s0)
    80002cbe:	e314                	sd	a3,0(a4)
    80002cc0:	439c                	lw	a5,0(a5)
    80002cc2:	1782                	slli	a5,a5,0x20
    80002cc4:	9381                	srli	a5,a5,0x20
/home/jstine/riscv-wally/examples/C/simple/../common/syscalls.c:185
    80002cc6:	853e                	mv	a0,a5
    80002cc8:	6462                	ld	s0,24(sp)
    80002cca:	6105                	addi	sp,sp,32
    80002ccc:	8082                	ret

0000000080002cce <getint>:
getint():
/home/jstine/riscv-wally/examples/C/simple/../common/syscalls.c:188
    80002cce:	1101                	addi	sp,sp,-32
    80002cd0:	ec22                	sd	s0,24(sp)
    80002cd2:	1000                	addi	s0,sp,32
    80002cd4:	fea43423          	sd	a0,-24(s0)
    80002cd8:	87ae                	mv	a5,a1
    80002cda:	fef42223          	sw	a5,-28(s0)
/home/jstine/riscv-wally/examples/C/simple/../common/syscalls.c:189
    80002cde:	fe442783          	lw	a5,-28(s0)
    80002ce2:	0007871b          	sext.w	a4,a5
    80002ce6:	4785                	li	a5,1
    80002ce8:	00e7dc63          	bge	a5,a4,80002d00 <getint+0x32>
/home/jstine/riscv-wally/examples/C/simple/../common/syscalls.c:190
    80002cec:	fe843783          	ld	a5,-24(s0)
    80002cf0:	639c                	ld	a5,0(a5)
    80002cf2:	00878693          	addi	a3,a5,8
    80002cf6:	fe843703          	ld	a4,-24(s0)
    80002cfa:	e314                	sd	a3,0(a4)
    80002cfc:	639c                	ld	a5,0(a5)
    80002cfe:	a805                	j	80002d2e <getint+0x60>
/home/jstine/riscv-wally/examples/C/simple/../common/syscalls.c:191
    80002d00:	fe442783          	lw	a5,-28(s0)
    80002d04:	2781                	sext.w	a5,a5
    80002d06:	cb99                	beqz	a5,80002d1c <getint+0x4e>
/home/jstine/riscv-wally/examples/C/simple/../common/syscalls.c:192
    80002d08:	fe843783          	ld	a5,-24(s0)
    80002d0c:	639c                	ld	a5,0(a5)
    80002d0e:	00878693          	addi	a3,a5,8
    80002d12:	fe843703          	ld	a4,-24(s0)
    80002d16:	e314                	sd	a3,0(a4)
    80002d18:	639c                	ld	a5,0(a5)
    80002d1a:	a811                	j	80002d2e <getint+0x60>
/home/jstine/riscv-wally/examples/C/simple/../common/syscalls.c:194
    80002d1c:	fe843783          	ld	a5,-24(s0)
    80002d20:	639c                	ld	a5,0(a5)
    80002d22:	00878693          	addi	a3,a5,8
    80002d26:	fe843703          	ld	a4,-24(s0)
    80002d2a:	e314                	sd	a3,0(a4)
    80002d2c:	439c                	lw	a5,0(a5)
/home/jstine/riscv-wally/examples/C/simple/../common/syscalls.c:195
    80002d2e:	853e                	mv	a0,a5
    80002d30:	6462                	ld	s0,24(sp)
    80002d32:	6105                	addi	sp,sp,32
    80002d34:	8082                	ret

0000000080002d36 <vprintfmt>:
vprintfmt():
/home/jstine/riscv-wally/examples/C/simple/../common/syscalls.c:198
    80002d36:	7159                	addi	sp,sp,-112
    80002d38:	f486                	sd	ra,104(sp)
    80002d3a:	f0a2                	sd	s0,96(sp)
    80002d3c:	eca6                	sd	s1,88(sp)
    80002d3e:	e8ca                	sd	s2,80(sp)
    80002d40:	1880                	addi	s0,sp,112
    80002d42:	faa43423          	sd	a0,-88(s0)
    80002d46:	fab43023          	sd	a1,-96(s0)
    80002d4a:	f8c43c23          	sd	a2,-104(s0)
    80002d4e:	f8d43823          	sd	a3,-112(s0)
/home/jstine/riscv-wally/examples/C/simple/../common/syscalls.c:207
    80002d52:	a831                	j	80002d6e <vprintfmt+0x38>
/home/jstine/riscv-wally/examples/C/simple/../common/syscalls.c:208
    80002d54:	32048a63          	beqz	s1,80003088 <vprintfmt+0x352>
/home/jstine/riscv-wally/examples/C/simple/../common/syscalls.c:210
    80002d58:	f9843783          	ld	a5,-104(s0)
    80002d5c:	0785                	addi	a5,a5,1
    80002d5e:	f8f43c23          	sd	a5,-104(s0)
/home/jstine/riscv-wally/examples/C/simple/../common/syscalls.c:211
    80002d62:	fa843783          	ld	a5,-88(s0)
    80002d66:	fa043583          	ld	a1,-96(s0)
    80002d6a:	8526                	mv	a0,s1
    80002d6c:	9782                	jalr	a5
/home/jstine/riscv-wally/examples/C/simple/../common/syscalls.c:207
    80002d6e:	f9843783          	ld	a5,-104(s0)
    80002d72:	0007c783          	lbu	a5,0(a5)
    80002d76:	0007849b          	sext.w	s1,a5
    80002d7a:	8726                	mv	a4,s1
    80002d7c:	02500793          	li	a5,37
    80002d80:	fcf71ae3          	bne	a4,a5,80002d54 <vprintfmt+0x1e>
/home/jstine/riscv-wally/examples/C/simple/../common/syscalls.c:213
    80002d84:	f9843783          	ld	a5,-104(s0)
    80002d88:	0785                	addi	a5,a5,1
    80002d8a:	f8f43c23          	sd	a5,-104(s0)
/home/jstine/riscv-wally/examples/C/simple/../common/syscalls.c:216
    80002d8e:	f9843783          	ld	a5,-104(s0)
    80002d92:	faf43c23          	sd	a5,-72(s0)
/home/jstine/riscv-wally/examples/C/simple/../common/syscalls.c:217
    80002d96:	02000793          	li	a5,32
    80002d9a:	fcf403a3          	sb	a5,-57(s0)
/home/jstine/riscv-wally/examples/C/simple/../common/syscalls.c:218
    80002d9e:	57fd                	li	a5,-1
    80002da0:	fcf42623          	sw	a5,-52(s0)
/home/jstine/riscv-wally/examples/C/simple/../common/syscalls.c:219
    80002da4:	57fd                	li	a5,-1
    80002da6:	fcf42423          	sw	a5,-56(s0)
/home/jstine/riscv-wally/examples/C/simple/../common/syscalls.c:220
    80002daa:	fc042823          	sw	zero,-48(s0)
/home/jstine/riscv-wally/examples/C/simple/../common/syscalls.c:221
    80002dae:	fa042a23          	sw	zero,-76(s0)
/home/jstine/riscv-wally/examples/C/simple/../common/syscalls.c:223
    80002db2:	f9843783          	ld	a5,-104(s0)
    80002db6:	00178713          	addi	a4,a5,1
    80002dba:	f8e43c23          	sd	a4,-104(s0)
    80002dbe:	0007c783          	lbu	a5,0(a5)
    80002dc2:	0007849b          	sext.w	s1,a5
    80002dc6:	fdd4869b          	addiw	a3,s1,-35
    80002dca:	0006871b          	sext.w	a4,a3
    80002dce:	05500793          	li	a5,85
    80002dd2:	28e7ee63          	bltu	a5,a4,8000306e <vprintfmt+0x338>
    80002dd6:	02069793          	slli	a5,a3,0x20
    80002dda:	9381                	srli	a5,a5,0x20
    80002ddc:	00279713          	slli	a4,a5,0x2
    80002de0:	00001797          	auipc	a5,0x1
    80002de4:	81078793          	addi	a5,a5,-2032 # 800035f0 <atol+0x130>
    80002de8:	97ba                	add	a5,a5,a4
    80002dea:	439c                	lw	a5,0(a5)
    80002dec:	0007871b          	sext.w	a4,a5
    80002df0:	00001797          	auipc	a5,0x1
    80002df4:	80078793          	addi	a5,a5,-2048 # 800035f0 <atol+0x130>
    80002df8:	97ba                	add	a5,a5,a4
    80002dfa:	8782                	jr	a5
/home/jstine/riscv-wally/examples/C/simple/../common/syscalls.c:227
    80002dfc:	02d00793          	li	a5,45
    80002e00:	fcf403a3          	sb	a5,-57(s0)
/home/jstine/riscv-wally/examples/C/simple/../common/syscalls.c:228
    80002e04:	b77d                	j	80002db2 <vprintfmt+0x7c>
/home/jstine/riscv-wally/examples/C/simple/../common/syscalls.c:232
    80002e06:	03000793          	li	a5,48
    80002e0a:	fcf403a3          	sb	a5,-57(s0)
/home/jstine/riscv-wally/examples/C/simple/../common/syscalls.c:233
    80002e0e:	b755                	j	80002db2 <vprintfmt+0x7c>
/home/jstine/riscv-wally/examples/C/simple/../common/syscalls.c:245
    80002e10:	fc042423          	sw	zero,-56(s0)
/home/jstine/riscv-wally/examples/C/simple/../common/syscalls.c:246
    80002e14:	fc842783          	lw	a5,-56(s0)
    80002e18:	873e                	mv	a4,a5
    80002e1a:	87ba                	mv	a5,a4
    80002e1c:	0027979b          	slliw	a5,a5,0x2
    80002e20:	9fb9                	addw	a5,a5,a4
    80002e22:	0017979b          	slliw	a5,a5,0x1
    80002e26:	2781                	sext.w	a5,a5
    80002e28:	9fa5                	addw	a5,a5,s1
    80002e2a:	2781                	sext.w	a5,a5
    80002e2c:	fd07879b          	addiw	a5,a5,-48
    80002e30:	fcf42423          	sw	a5,-56(s0)
/home/jstine/riscv-wally/examples/C/simple/../common/syscalls.c:247
    80002e34:	f9843783          	ld	a5,-104(s0)
    80002e38:	0007c783          	lbu	a5,0(a5)
    80002e3c:	0007849b          	sext.w	s1,a5
/home/jstine/riscv-wally/examples/C/simple/../common/syscalls.c:248
    80002e40:	8726                	mv	a4,s1
    80002e42:	02f00793          	li	a5,47
    80002e46:	04e7d363          	bge	a5,a4,80002e8c <vprintfmt+0x156>
/home/jstine/riscv-wally/examples/C/simple/../common/syscalls.c:248 (discriminator 1)
    80002e4a:	8726                	mv	a4,s1
    80002e4c:	03900793          	li	a5,57
    80002e50:	02e7ce63          	blt	a5,a4,80002e8c <vprintfmt+0x156>
/home/jstine/riscv-wally/examples/C/simple/../common/syscalls.c:245
    80002e54:	f9843783          	ld	a5,-104(s0)
    80002e58:	0785                	addi	a5,a5,1
    80002e5a:	f8f43c23          	sd	a5,-104(s0)
/home/jstine/riscv-wally/examples/C/simple/../common/syscalls.c:246
    80002e5e:	bf5d                	j	80002e14 <vprintfmt+0xde>
/home/jstine/riscv-wally/examples/C/simple/../common/syscalls.c:254
    80002e60:	f9043783          	ld	a5,-112(s0)
    80002e64:	00878713          	addi	a4,a5,8
    80002e68:	f8e43823          	sd	a4,-112(s0)
    80002e6c:	439c                	lw	a5,0(a5)
    80002e6e:	fcf42423          	sw	a5,-56(s0)
/home/jstine/riscv-wally/examples/C/simple/../common/syscalls.c:255
    80002e72:	a831                	j	80002e8e <vprintfmt+0x158>
/home/jstine/riscv-wally/examples/C/simple/../common/syscalls.c:258
    80002e74:	fcc42783          	lw	a5,-52(s0)
    80002e78:	2781                	sext.w	a5,a5
    80002e7a:	f207dce3          	bgez	a5,80002db2 <vprintfmt+0x7c>
/home/jstine/riscv-wally/examples/C/simple/../common/syscalls.c:259
    80002e7e:	fc042623          	sw	zero,-52(s0)
/home/jstine/riscv-wally/examples/C/simple/../common/syscalls.c:260
    80002e82:	bf05                	j	80002db2 <vprintfmt+0x7c>
/home/jstine/riscv-wally/examples/C/simple/../common/syscalls.c:263
    80002e84:	4785                	li	a5,1
    80002e86:	faf42a23          	sw	a5,-76(s0)
/home/jstine/riscv-wally/examples/C/simple/../common/syscalls.c:264
    80002e8a:	b725                	j	80002db2 <vprintfmt+0x7c>
/home/jstine/riscv-wally/examples/C/simple/../common/syscalls.c:251
    80002e8c:	0001                	nop
/home/jstine/riscv-wally/examples/C/simple/../common/syscalls.c:267
    80002e8e:	fcc42783          	lw	a5,-52(s0)
    80002e92:	2781                	sext.w	a5,a5
    80002e94:	f007dfe3          	bgez	a5,80002db2 <vprintfmt+0x7c>
/home/jstine/riscv-wally/examples/C/simple/../common/syscalls.c:268
    80002e98:	fc842783          	lw	a5,-56(s0)
    80002e9c:	fcf42623          	sw	a5,-52(s0)
    80002ea0:	57fd                	li	a5,-1
    80002ea2:	fcf42423          	sw	a5,-56(s0)
/home/jstine/riscv-wally/examples/C/simple/../common/syscalls.c:269
    80002ea6:	b731                	j	80002db2 <vprintfmt+0x7c>
/home/jstine/riscv-wally/examples/C/simple/../common/syscalls.c:273
    80002ea8:	fd042783          	lw	a5,-48(s0)
    80002eac:	2785                	addiw	a5,a5,1
    80002eae:	fcf42823          	sw	a5,-48(s0)
/home/jstine/riscv-wally/examples/C/simple/../common/syscalls.c:274
    80002eb2:	b701                	j	80002db2 <vprintfmt+0x7c>
/home/jstine/riscv-wally/examples/C/simple/../common/syscalls.c:278
    80002eb4:	f9043783          	ld	a5,-112(s0)
    80002eb8:	00878713          	addi	a4,a5,8
    80002ebc:	f8e43823          	sd	a4,-112(s0)
    80002ec0:	439c                	lw	a5,0(a5)
    80002ec2:	fa843703          	ld	a4,-88(s0)
    80002ec6:	fa043583          	ld	a1,-96(s0)
    80002eca:	853e                	mv	a0,a5
    80002ecc:	9702                	jalr	a4
/home/jstine/riscv-wally/examples/C/simple/../common/syscalls.c:279
    80002ece:	aa65                	j	80003086 <vprintfmt+0x350>
/home/jstine/riscv-wally/examples/C/simple/../common/syscalls.c:283
    80002ed0:	f9043783          	ld	a5,-112(s0)
    80002ed4:	00878713          	addi	a4,a5,8
    80002ed8:	f8e43823          	sd	a4,-112(s0)
    80002edc:	0007b903          	ld	s2,0(a5)
    80002ee0:	00091663          	bnez	s2,80002eec <vprintfmt+0x1b6>
/home/jstine/riscv-wally/examples/C/simple/../common/syscalls.c:284
    80002ee4:	00000917          	auipc	s2,0x0
    80002ee8:	70490913          	addi	s2,s2,1796 # 800035e8 <atol+0x128>
/home/jstine/riscv-wally/examples/C/simple/../common/syscalls.c:285
    80002eec:	fcc42783          	lw	a5,-52(s0)
    80002ef0:	2781                	sext.w	a5,a5
    80002ef2:	06f05a63          	blez	a5,80002f66 <vprintfmt+0x230>
/home/jstine/riscv-wally/examples/C/simple/../common/syscalls.c:285 (discriminator 1)
    80002ef6:	fc744783          	lbu	a5,-57(s0)
    80002efa:	0ff7f713          	zext.b	a4,a5
    80002efe:	02d00793          	li	a5,45
    80002f02:	06f70263          	beq	a4,a5,80002f66 <vprintfmt+0x230>
/home/jstine/riscv-wally/examples/C/simple/../common/syscalls.c:286
    80002f06:	fcc42483          	lw	s1,-52(s0)
    80002f0a:	fc842783          	lw	a5,-56(s0)
    80002f0e:	85be                	mv	a1,a5
    80002f10:	854a                	mv	a0,s2
    80002f12:	4a4000ef          	jal	ra,800033b6 <strnlen>
    80002f16:	87aa                	mv	a5,a0
    80002f18:	2781                	sext.w	a5,a5
    80002f1a:	40f487bb          	subw	a5,s1,a5
    80002f1e:	2781                	sext.w	a5,a5
    80002f20:	fcf42623          	sw	a5,-52(s0)
    80002f24:	a839                	j	80002f42 <vprintfmt+0x20c>
/home/jstine/riscv-wally/examples/C/simple/../common/syscalls.c:287 (discriminator 3)
    80002f26:	fc744783          	lbu	a5,-57(s0)
    80002f2a:	2781                	sext.w	a5,a5
    80002f2c:	fa843703          	ld	a4,-88(s0)
    80002f30:	fa043583          	ld	a1,-96(s0)
    80002f34:	853e                	mv	a0,a5
    80002f36:	9702                	jalr	a4
/home/jstine/riscv-wally/examples/C/simple/../common/syscalls.c:286 (discriminator 3)
    80002f38:	fcc42783          	lw	a5,-52(s0)
    80002f3c:	37fd                	addiw	a5,a5,-1
    80002f3e:	fcf42623          	sw	a5,-52(s0)
/home/jstine/riscv-wally/examples/C/simple/../common/syscalls.c:286 (discriminator 1)
    80002f42:	fcc42783          	lw	a5,-52(s0)
    80002f46:	2781                	sext.w	a5,a5
    80002f48:	fcf04fe3          	bgtz	a5,80002f26 <vprintfmt+0x1f0>
/home/jstine/riscv-wally/examples/C/simple/../common/syscalls.c:288
    80002f4c:	a829                	j	80002f66 <vprintfmt+0x230>
/home/jstine/riscv-wally/examples/C/simple/../common/syscalls.c:289 (discriminator 5)
    80002f4e:	fa843783          	ld	a5,-88(s0)
    80002f52:	fa043583          	ld	a1,-96(s0)
    80002f56:	8526                	mv	a0,s1
    80002f58:	9782                	jalr	a5
/home/jstine/riscv-wally/examples/C/simple/../common/syscalls.c:290 (discriminator 5)
    80002f5a:	0905                	addi	s2,s2,1
/home/jstine/riscv-wally/examples/C/simple/../common/syscalls.c:288 (discriminator 5)
    80002f5c:	fcc42783          	lw	a5,-52(s0)
    80002f60:	37fd                	addiw	a5,a5,-1
    80002f62:	fcf42623          	sw	a5,-52(s0)
/home/jstine/riscv-wally/examples/C/simple/../common/syscalls.c:288 (discriminator 1)
    80002f66:	00094783          	lbu	a5,0(s2)
    80002f6a:	0007849b          	sext.w	s1,a5
    80002f6e:	cc8d                	beqz	s1,80002fa8 <vprintfmt+0x272>
/home/jstine/riscv-wally/examples/C/simple/../common/syscalls.c:288 (discriminator 2)
    80002f70:	fc842783          	lw	a5,-56(s0)
    80002f74:	2781                	sext.w	a5,a5
    80002f76:	fc07cce3          	bltz	a5,80002f4e <vprintfmt+0x218>
/home/jstine/riscv-wally/examples/C/simple/../common/syscalls.c:288 (discriminator 4)
    80002f7a:	fc842783          	lw	a5,-56(s0)
    80002f7e:	37fd                	addiw	a5,a5,-1
    80002f80:	fcf42423          	sw	a5,-56(s0)
    80002f84:	fc842783          	lw	a5,-56(s0)
    80002f88:	2781                	sext.w	a5,a5
    80002f8a:	fc07d2e3          	bgez	a5,80002f4e <vprintfmt+0x218>
/home/jstine/riscv-wally/examples/C/simple/../common/syscalls.c:292
    80002f8e:	a829                	j	80002fa8 <vprintfmt+0x272>
/home/jstine/riscv-wally/examples/C/simple/../common/syscalls.c:293 (discriminator 2)
    80002f90:	fa843783          	ld	a5,-88(s0)
    80002f94:	fa043583          	ld	a1,-96(s0)
    80002f98:	02000513          	li	a0,32
    80002f9c:	9782                	jalr	a5
/home/jstine/riscv-wally/examples/C/simple/../common/syscalls.c:292 (discriminator 2)
    80002f9e:	fcc42783          	lw	a5,-52(s0)
    80002fa2:	37fd                	addiw	a5,a5,-1
    80002fa4:	fcf42623          	sw	a5,-52(s0)
/home/jstine/riscv-wally/examples/C/simple/../common/syscalls.c:292 (discriminator 1)
    80002fa8:	fcc42783          	lw	a5,-52(s0)
    80002fac:	2781                	sext.w	a5,a5
    80002fae:	fef041e3          	bgtz	a5,80002f90 <vprintfmt+0x25a>
/home/jstine/riscv-wally/examples/C/simple/../common/syscalls.c:294
    80002fb2:	a8d1                	j	80003086 <vprintfmt+0x350>
/home/jstine/riscv-wally/examples/C/simple/../common/syscalls.c:298
    80002fb4:	fd042703          	lw	a4,-48(s0)
    80002fb8:	f9040793          	addi	a5,s0,-112
    80002fbc:	85ba                	mv	a1,a4
    80002fbe:	853e                	mv	a0,a5
    80002fc0:	d0fff0ef          	jal	ra,80002cce <getint>
    80002fc4:	87aa                	mv	a5,a0
    80002fc6:	fcf43c23          	sd	a5,-40(s0)
/home/jstine/riscv-wally/examples/C/simple/../common/syscalls.c:299
    80002fca:	fd843783          	ld	a5,-40(s0)
    80002fce:	0007df63          	bgez	a5,80002fec <vprintfmt+0x2b6>
/home/jstine/riscv-wally/examples/C/simple/../common/syscalls.c:300
    80002fd2:	fa843783          	ld	a5,-88(s0)
    80002fd6:	fa043583          	ld	a1,-96(s0)
    80002fda:	02d00513          	li	a0,45
    80002fde:	9782                	jalr	a5
/home/jstine/riscv-wally/examples/C/simple/../common/syscalls.c:301
    80002fe0:	fd843783          	ld	a5,-40(s0)
    80002fe4:	40f007b3          	neg	a5,a5
    80002fe8:	fcf43c23          	sd	a5,-40(s0)
/home/jstine/riscv-wally/examples/C/simple/../common/syscalls.c:303
    80002fec:	47a9                	li	a5,10
    80002fee:	fcf42a23          	sw	a5,-44(s0)
/home/jstine/riscv-wally/examples/C/simple/../common/syscalls.c:304
    80002ff2:	a0b9                	j	80003040 <vprintfmt+0x30a>
/home/jstine/riscv-wally/examples/C/simple/../common/syscalls.c:308
    80002ff4:	47a9                	li	a5,10
    80002ff6:	fcf42a23          	sw	a5,-44(s0)
/home/jstine/riscv-wally/examples/C/simple/../common/syscalls.c:309
    80002ffa:	a80d                	j	8000302c <vprintfmt+0x2f6>
/home/jstine/riscv-wally/examples/C/simple/../common/syscalls.c:314
    80002ffc:	47a1                	li	a5,8
    80002ffe:	fcf42a23          	sw	a5,-44(s0)
/home/jstine/riscv-wally/examples/C/simple/../common/syscalls.c:315
    80003002:	a02d                	j	8000302c <vprintfmt+0x2f6>
/home/jstine/riscv-wally/examples/C/simple/../common/syscalls.c:320
    80003004:	4785                	li	a5,1
    80003006:	fcf42823          	sw	a5,-48(s0)
/home/jstine/riscv-wally/examples/C/simple/../common/syscalls.c:321
    8000300a:	fa843783          	ld	a5,-88(s0)
    8000300e:	fa043583          	ld	a1,-96(s0)
    80003012:	03000513          	li	a0,48
    80003016:	9782                	jalr	a5
/home/jstine/riscv-wally/examples/C/simple/../common/syscalls.c:322
    80003018:	fa843783          	ld	a5,-88(s0)
    8000301c:	fa043583          	ld	a1,-96(s0)
    80003020:	07800513          	li	a0,120
    80003024:	9782                	jalr	a5
/home/jstine/riscv-wally/examples/C/simple/../common/syscalls.c:327
    80003026:	47c1                	li	a5,16
    80003028:	fcf42a23          	sw	a5,-44(s0)
/home/jstine/riscv-wally/examples/C/simple/../common/syscalls.c:329
    8000302c:	fd042703          	lw	a4,-48(s0)
    80003030:	f9040793          	addi	a5,s0,-112
    80003034:	85ba                	mv	a1,a4
    80003036:	853e                	mv	a0,a5
    80003038:	c2bff0ef          	jal	ra,80002c62 <getuint>
    8000303c:	fca43c23          	sd	a0,-40(s0)
/home/jstine/riscv-wally/examples/C/simple/../common/syscalls.c:331
    80003040:	fd442683          	lw	a3,-44(s0)
    80003044:	fc744783          	lbu	a5,-57(s0)
    80003048:	2781                	sext.w	a5,a5
    8000304a:	fcc42703          	lw	a4,-52(s0)
    8000304e:	fd843603          	ld	a2,-40(s0)
    80003052:	fa043583          	ld	a1,-96(s0)
    80003056:	fa843503          	ld	a0,-88(s0)
    8000305a:	b0dff0ef          	jal	ra,80002b66 <printnum>
/home/jstine/riscv-wally/examples/C/simple/../common/syscalls.c:332
    8000305e:	a025                	j	80003086 <vprintfmt+0x350>
/home/jstine/riscv-wally/examples/C/simple/../common/syscalls.c:336
    80003060:	fa843783          	ld	a5,-88(s0)
    80003064:	fa043583          	ld	a1,-96(s0)
    80003068:	8526                	mv	a0,s1
    8000306a:	9782                	jalr	a5
/home/jstine/riscv-wally/examples/C/simple/../common/syscalls.c:337
    8000306c:	a829                	j	80003086 <vprintfmt+0x350>
/home/jstine/riscv-wally/examples/C/simple/../common/syscalls.c:341
    8000306e:	fa843783          	ld	a5,-88(s0)
    80003072:	fa043583          	ld	a1,-96(s0)
    80003076:	02500513          	li	a0,37
    8000307a:	9782                	jalr	a5
/home/jstine/riscv-wally/examples/C/simple/../common/syscalls.c:342
    8000307c:	fb843783          	ld	a5,-72(s0)
    80003080:	f8f43c23          	sd	a5,-104(s0)
/home/jstine/riscv-wally/examples/C/simple/../common/syscalls.c:343
    80003084:	0001                	nop
/home/jstine/riscv-wally/examples/C/simple/../common/syscalls.c:207 (discriminator 1)
    80003086:	b1e5                	j	80002d6e <vprintfmt+0x38>
/home/jstine/riscv-wally/examples/C/simple/../common/syscalls.c:209
    80003088:	0001                	nop
/home/jstine/riscv-wally/examples/C/simple/../common/syscalls.c:346
    8000308a:	70a6                	ld	ra,104(sp)
    8000308c:	7406                	ld	s0,96(sp)
    8000308e:	64e6                	ld	s1,88(sp)
    80003090:	6946                	ld	s2,80(sp)
    80003092:	6165                	addi	sp,sp,112
    80003094:	8082                	ret

0000000080003096 <printf>:
printf():
/home/jstine/riscv-wally/examples/C/simple/../common/syscalls.c:349
    80003096:	7159                	addi	sp,sp,-112
    80003098:	f406                	sd	ra,40(sp)
    8000309a:	f022                	sd	s0,32(sp)
    8000309c:	1800                	addi	s0,sp,48
    8000309e:	fca43c23          	sd	a0,-40(s0)
    800030a2:	e40c                	sd	a1,8(s0)
    800030a4:	e810                	sd	a2,16(s0)
    800030a6:	ec14                	sd	a3,24(s0)
    800030a8:	f018                	sd	a4,32(s0)
    800030aa:	f41c                	sd	a5,40(s0)
    800030ac:	03043823          	sd	a6,48(s0)
    800030b0:	03143c23          	sd	a7,56(s0)
/home/jstine/riscv-wally/examples/C/simple/../common/syscalls.c:351
    800030b4:	04040793          	addi	a5,s0,64
    800030b8:	fcf43823          	sd	a5,-48(s0)
    800030bc:	fd043783          	ld	a5,-48(s0)
    800030c0:	fc878793          	addi	a5,a5,-56
    800030c4:	fef43423          	sd	a5,-24(s0)
/home/jstine/riscv-wally/examples/C/simple/../common/syscalls.c:353
    800030c8:	fe843783          	ld	a5,-24(s0)
    800030cc:	86be                	mv	a3,a5
    800030ce:	fd843603          	ld	a2,-40(s0)
    800030d2:	4581                	li	a1,0
    800030d4:	00000517          	auipc	a0,0x0
    800030d8:	99450513          	addi	a0,a0,-1644 # 80002a68 <putchar>
    800030dc:	c5bff0ef          	jal	ra,80002d36 <vprintfmt>
/home/jstine/riscv-wally/examples/C/simple/../common/syscalls.c:356
    800030e0:	4781                	li	a5,0
/home/jstine/riscv-wally/examples/C/simple/../common/syscalls.c:357
    800030e2:	853e                	mv	a0,a5
    800030e4:	70a2                	ld	ra,40(sp)
    800030e6:	7402                	ld	s0,32(sp)
    800030e8:	6165                	addi	sp,sp,112
    800030ea:	8082                	ret

00000000800030ec <sprintf_putch.0>:
sprintf_putch():
/home/jstine/riscv-wally/examples/C/simple/../common/syscalls.c:366
    800030ec:	7139                	addi	sp,sp,-64
    800030ee:	fc22                	sd	s0,56(sp)
    800030f0:	0080                	addi	s0,sp,64
    800030f2:	87aa                	mv	a5,a0
    800030f4:	fcb43823          	sd	a1,-48(s0)
    800030f8:	fcf42e23          	sw	a5,-36(s0)
    800030fc:	fc743423          	sd	t2,-56(s0)
/home/jstine/riscv-wally/examples/C/simple/../common/syscalls.c:367
    80003100:	fd043783          	ld	a5,-48(s0)
    80003104:	fef43423          	sd	a5,-24(s0)
/home/jstine/riscv-wally/examples/C/simple/../common/syscalls.c:368
    80003108:	fe843783          	ld	a5,-24(s0)
    8000310c:	639c                	ld	a5,0(a5)
    8000310e:	fdc42703          	lw	a4,-36(s0)
    80003112:	0ff77713          	zext.b	a4,a4
    80003116:	00e78023          	sb	a4,0(a5)
/home/jstine/riscv-wally/examples/C/simple/../common/syscalls.c:369
    8000311a:	fe843783          	ld	a5,-24(s0)
    8000311e:	639c                	ld	a5,0(a5)
    80003120:	00178713          	addi	a4,a5,1
    80003124:	fe843783          	ld	a5,-24(s0)
    80003128:	e398                	sd	a4,0(a5)
/home/jstine/riscv-wally/examples/C/simple/../common/syscalls.c:370
    8000312a:	0001                	nop
    8000312c:	7462                	ld	s0,56(sp)
    8000312e:	6121                	addi	sp,sp,64
    80003130:	8082                	ret

0000000080003132 <sprintf>:
sprintf():
/home/jstine/riscv-wally/examples/C/simple/../common/syscalls.c:360
    80003132:	716d                	addi	sp,sp,-272
    80003134:	ed86                	sd	ra,216(sp)
    80003136:	e9a2                	sd	s0,208(sp)
    80003138:	1180                	addi	s0,sp,224
    8000313a:	f2a43c23          	sd	a0,-200(s0)
    8000313e:	f2b43823          	sd	a1,-208(s0)
    80003142:	e010                	sd	a2,0(s0)
    80003144:	e414                	sd	a3,8(s0)
    80003146:	e818                	sd	a4,16(s0)
    80003148:	ec1c                	sd	a5,24(s0)
    8000314a:	03043023          	sd	a6,32(s0)
    8000314e:	03143423          	sd	a7,40(s0)
/home/jstine/riscv/riscv64-unknown-elf/include/stdio.h:244
    80003152:	03040793          	addi	a5,s0,48
    80003156:	f2f43423          	sd	a5,-216(s0)
    8000315a:	f2843783          	ld	a5,-216(s0)
    8000315e:	fcf43c23          	sd	a5,-40(s0)
    80003162:	f4840793          	addi	a5,s0,-184
    80003166:	f4840713          	addi	a4,s0,-184
    8000316a:	39700693          	li	a3,919
    8000316e:	c394                	sw	a3,0(a5)
    80003170:	0183b6b7          	lui	a3,0x183b
    80003174:	28368693          	addi	a3,a3,643 # 183b283 <buflen.3+0x183b1c3>
    80003178:	c3d4                	sw	a3,4(a5)
    8000317a:	0103b6b7          	lui	a3,0x103b
    8000317e:	38368693          	addi	a3,a3,899 # 103b383 <buflen.3+0x103b2c3>
    80003182:	c794                	sw	a3,8(a5)
    80003184:	000286b7          	lui	a3,0x28
    80003188:	06768693          	addi	a3,a3,103 # 28067 <buflen.3+0x27fa7>
    8000318c:	c7d4                	sw	a3,12(a5)
    8000318e:	eb98                	sd	a4,16(a5)
    80003190:	00000717          	auipc	a4,0x0
    80003194:	f5c70713          	addi	a4,a4,-164 # 800030ec <sprintf_putch.0>
    80003198:	ef98                	sd	a4,24(a5)
    8000319a:	0000100f          	fence.i
/home/jstine/riscv-wally/examples/C/simple/../common/syscalls.c:362
    8000319e:	f3843783          	ld	a5,-200(s0)
    800031a2:	fef43423          	sd	a5,-24(s0)
/home/jstine/riscv-wally/examples/C/simple/../common/syscalls.c:363
    800031a6:	03040793          	addi	a5,s0,48
    800031aa:	f2f43423          	sd	a5,-216(s0)
    800031ae:	f2843783          	ld	a5,-216(s0)
    800031b2:	fd078793          	addi	a5,a5,-48
    800031b6:	fef43023          	sd	a5,-32(s0)
/home/jstine/riscv-wally/examples/C/simple/../common/syscalls.c:372
    800031ba:	fe043703          	ld	a4,-32(s0)
    800031be:	f4840793          	addi	a5,s0,-184
    800031c2:	853e                	mv	a0,a5
    800031c4:	f3840793          	addi	a5,s0,-200
    800031c8:	86ba                	mv	a3,a4
    800031ca:	f3043603          	ld	a2,-208(s0)
    800031ce:	85be                	mv	a1,a5
    800031d0:	b67ff0ef          	jal	ra,80002d36 <vprintfmt>
/home/jstine/riscv-wally/examples/C/simple/../common/syscalls.c:373
    800031d4:	f3843783          	ld	a5,-200(s0)
    800031d8:	00078023          	sb	zero,0(a5)
/home/jstine/riscv-wally/examples/C/simple/../common/syscalls.c:376
    800031dc:	f3843703          	ld	a4,-200(s0)
    800031e0:	fe843783          	ld	a5,-24(s0)
    800031e4:	40f707b3          	sub	a5,a4,a5
    800031e8:	2781                	sext.w	a5,a5
/home/jstine/riscv-wally/examples/C/simple/../common/syscalls.c:377
    800031ea:	853e                	mv	a0,a5
    800031ec:	60ee                	ld	ra,216(sp)
    800031ee:	644e                	ld	s0,208(sp)
    800031f0:	6151                	addi	sp,sp,272
    800031f2:	8082                	ret

00000000800031f4 <memcpy>:
memcpy():
/home/jstine/riscv-wally/examples/C/simple/../common/syscalls.c:380
    800031f4:	715d                	addi	sp,sp,-80
    800031f6:	e4a2                	sd	s0,72(sp)
    800031f8:	0880                	addi	s0,sp,80
    800031fa:	fca43423          	sd	a0,-56(s0)
    800031fe:	fcb43023          	sd	a1,-64(s0)
    80003202:	fac43c23          	sd	a2,-72(s0)
/home/jstine/riscv-wally/examples/C/simple/../common/syscalls.c:381
    80003206:	fc843703          	ld	a4,-56(s0)
    8000320a:	fc043783          	ld	a5,-64(s0)
    8000320e:	8f5d                	or	a4,a4,a5
    80003210:	fb843783          	ld	a5,-72(s0)
    80003214:	8fd9                	or	a5,a5,a4
    80003216:	8b9d                	andi	a5,a5,7
    80003218:	e3b1                	bnez	a5,8000325c <memcpy+0x68>
/home/jstine/riscv-wally/examples/C/simple/../common/syscalls.c:382
    8000321a:	fc043783          	ld	a5,-64(s0)
    8000321e:	fef43423          	sd	a5,-24(s0)
/home/jstine/riscv-wally/examples/C/simple/../common/syscalls.c:383
    80003222:	fc843783          	ld	a5,-56(s0)
    80003226:	fef43023          	sd	a5,-32(s0)
/home/jstine/riscv-wally/examples/C/simple/../common/syscalls.c:384
    8000322a:	a839                	j	80003248 <memcpy+0x54>
/home/jstine/riscv-wally/examples/C/simple/../common/syscalls.c:385
    8000322c:	fe843703          	ld	a4,-24(s0)
    80003230:	00870793          	addi	a5,a4,8
    80003234:	fef43423          	sd	a5,-24(s0)
    80003238:	fe043783          	ld	a5,-32(s0)
    8000323c:	00878693          	addi	a3,a5,8
    80003240:	fed43023          	sd	a3,-32(s0)
    80003244:	6318                	ld	a4,0(a4)
    80003246:	e398                	sd	a4,0(a5)
/home/jstine/riscv-wally/examples/C/simple/../common/syscalls.c:384
    80003248:	fc843703          	ld	a4,-56(s0)
    8000324c:	fb843783          	ld	a5,-72(s0)
    80003250:	97ba                	add	a5,a5,a4
    80003252:	fe043703          	ld	a4,-32(s0)
    80003256:	fcf76be3          	bltu	a4,a5,8000322c <memcpy+0x38>
    8000325a:	a099                	j	800032a0 <memcpy+0xac>
/home/jstine/riscv-wally/examples/C/simple/../common/syscalls.c:387
    8000325c:	fc043783          	ld	a5,-64(s0)
    80003260:	fcf43c23          	sd	a5,-40(s0)
/home/jstine/riscv-wally/examples/C/simple/../common/syscalls.c:388
    80003264:	fc843783          	ld	a5,-56(s0)
    80003268:	fcf43823          	sd	a5,-48(s0)
/home/jstine/riscv-wally/examples/C/simple/../common/syscalls.c:389
    8000326c:	a00d                	j	8000328e <memcpy+0x9a>
/home/jstine/riscv-wally/examples/C/simple/../common/syscalls.c:390
    8000326e:	fd843703          	ld	a4,-40(s0)
    80003272:	00170793          	addi	a5,a4,1
    80003276:	fcf43c23          	sd	a5,-40(s0)
    8000327a:	fd043783          	ld	a5,-48(s0)
    8000327e:	00178693          	addi	a3,a5,1
    80003282:	fcd43823          	sd	a3,-48(s0)
    80003286:	00074703          	lbu	a4,0(a4)
    8000328a:	00e78023          	sb	a4,0(a5)
/home/jstine/riscv-wally/examples/C/simple/../common/syscalls.c:389
    8000328e:	fc843703          	ld	a4,-56(s0)
    80003292:	fb843783          	ld	a5,-72(s0)
    80003296:	97ba                	add	a5,a5,a4
    80003298:	fd043703          	ld	a4,-48(s0)
    8000329c:	fcf769e3          	bltu	a4,a5,8000326e <memcpy+0x7a>
/home/jstine/riscv-wally/examples/C/simple/../common/syscalls.c:392
    800032a0:	fc843783          	ld	a5,-56(s0)
/home/jstine/riscv-wally/examples/C/simple/../common/syscalls.c:393
    800032a4:	853e                	mv	a0,a5
    800032a6:	6426                	ld	s0,72(sp)
    800032a8:	6161                	addi	sp,sp,80
    800032aa:	8082                	ret

00000000800032ac <memset>:
memset():
/home/jstine/riscv-wally/examples/C/simple/../common/syscalls.c:396
    800032ac:	715d                	addi	sp,sp,-80
    800032ae:	e4a2                	sd	s0,72(sp)
    800032b0:	0880                	addi	s0,sp,80
    800032b2:	fca43423          	sd	a0,-56(s0)
    800032b6:	87ae                	mv	a5,a1
    800032b8:	fac43c23          	sd	a2,-72(s0)
    800032bc:	fcf42223          	sw	a5,-60(s0)
/home/jstine/riscv-wally/examples/C/simple/../common/syscalls.c:397
    800032c0:	fc843703          	ld	a4,-56(s0)
    800032c4:	fb843783          	ld	a5,-72(s0)
    800032c8:	8fd9                	or	a5,a5,a4
    800032ca:	8b9d                	andi	a5,a5,7
    800032cc:	e7bd                	bnez	a5,8000333a <memset+0x8e>
/home/jstine/riscv-wally/examples/C/simple/../common/syscalls.c:398
    800032ce:	fc442783          	lw	a5,-60(s0)
    800032d2:	0ff7f793          	zext.b	a5,a5
    800032d6:	fcf43c23          	sd	a5,-40(s0)
/home/jstine/riscv-wally/examples/C/simple/../common/syscalls.c:399
    800032da:	fd843783          	ld	a5,-40(s0)
    800032de:	07a2                	slli	a5,a5,0x8
    800032e0:	fd843703          	ld	a4,-40(s0)
    800032e4:	8fd9                	or	a5,a5,a4
    800032e6:	fcf43c23          	sd	a5,-40(s0)
/home/jstine/riscv-wally/examples/C/simple/../common/syscalls.c:400
    800032ea:	fd843783          	ld	a5,-40(s0)
    800032ee:	07c2                	slli	a5,a5,0x10
    800032f0:	fd843703          	ld	a4,-40(s0)
    800032f4:	8fd9                	or	a5,a5,a4
    800032f6:	fcf43c23          	sd	a5,-40(s0)
/home/jstine/riscv-wally/examples/C/simple/../common/syscalls.c:401
    800032fa:	fd843783          	ld	a5,-40(s0)
    800032fe:	1782                	slli	a5,a5,0x20
    80003300:	fd843703          	ld	a4,-40(s0)
    80003304:	8fd9                	or	a5,a5,a4
    80003306:	fcf43c23          	sd	a5,-40(s0)
/home/jstine/riscv-wally/examples/C/simple/../common/syscalls.c:403
    8000330a:	fc843783          	ld	a5,-56(s0)
    8000330e:	fef43423          	sd	a5,-24(s0)
/home/jstine/riscv-wally/examples/C/simple/../common/syscalls.c:404
    80003312:	a811                	j	80003326 <memset+0x7a>
/home/jstine/riscv-wally/examples/C/simple/../common/syscalls.c:405
    80003314:	fe843783          	ld	a5,-24(s0)
    80003318:	00878713          	addi	a4,a5,8
    8000331c:	fee43423          	sd	a4,-24(s0)
    80003320:	fd843703          	ld	a4,-40(s0)
    80003324:	e398                	sd	a4,0(a5)
/home/jstine/riscv-wally/examples/C/simple/../common/syscalls.c:404
    80003326:	fc843703          	ld	a4,-56(s0)
    8000332a:	fb843783          	ld	a5,-72(s0)
    8000332e:	97ba                	add	a5,a5,a4
    80003330:	fe843703          	ld	a4,-24(s0)
    80003334:	fef760e3          	bltu	a4,a5,80003314 <memset+0x68>
    80003338:	a81d                	j	8000336e <memset+0xc2>
/home/jstine/riscv-wally/examples/C/simple/../common/syscalls.c:407
    8000333a:	fc843783          	ld	a5,-56(s0)
    8000333e:	fef43023          	sd	a5,-32(s0)
/home/jstine/riscv-wally/examples/C/simple/../common/syscalls.c:408
    80003342:	a829                	j	8000335c <memset+0xb0>
/home/jstine/riscv-wally/examples/C/simple/../common/syscalls.c:409
    80003344:	fe043783          	ld	a5,-32(s0)
    80003348:	00178713          	addi	a4,a5,1
    8000334c:	fee43023          	sd	a4,-32(s0)
    80003350:	fc442703          	lw	a4,-60(s0)
    80003354:	0ff77713          	zext.b	a4,a4
    80003358:	00e78023          	sb	a4,0(a5)
/home/jstine/riscv-wally/examples/C/simple/../common/syscalls.c:408
    8000335c:	fc843703          	ld	a4,-56(s0)
    80003360:	fb843783          	ld	a5,-72(s0)
    80003364:	97ba                	add	a5,a5,a4
    80003366:	fe043703          	ld	a4,-32(s0)
    8000336a:	fcf76de3          	bltu	a4,a5,80003344 <memset+0x98>
/home/jstine/riscv-wally/examples/C/simple/../common/syscalls.c:411
    8000336e:	fc843783          	ld	a5,-56(s0)
/home/jstine/riscv-wally/examples/C/simple/../common/syscalls.c:412
    80003372:	853e                	mv	a0,a5
    80003374:	6426                	ld	s0,72(sp)
    80003376:	6161                	addi	sp,sp,80
    80003378:	8082                	ret

000000008000337a <strlen>:
strlen():
/home/jstine/riscv-wally/examples/C/simple/../common/syscalls.c:415
    8000337a:	7179                	addi	sp,sp,-48
    8000337c:	f422                	sd	s0,40(sp)
    8000337e:	1800                	addi	s0,sp,48
    80003380:	fca43c23          	sd	a0,-40(s0)
/home/jstine/riscv-wally/examples/C/simple/../common/syscalls.c:416
    80003384:	fd843783          	ld	a5,-40(s0)
    80003388:	fef43423          	sd	a5,-24(s0)
/home/jstine/riscv-wally/examples/C/simple/../common/syscalls.c:417
    8000338c:	a031                	j	80003398 <strlen+0x1e>
/home/jstine/riscv-wally/examples/C/simple/../common/syscalls.c:418
    8000338e:	fe843783          	ld	a5,-24(s0)
    80003392:	0785                	addi	a5,a5,1
    80003394:	fef43423          	sd	a5,-24(s0)
/home/jstine/riscv-wally/examples/C/simple/../common/syscalls.c:417
    80003398:	fe843783          	ld	a5,-24(s0)
    8000339c:	0007c783          	lbu	a5,0(a5)
    800033a0:	f7fd                	bnez	a5,8000338e <strlen+0x14>
/home/jstine/riscv-wally/examples/C/simple/../common/syscalls.c:419
    800033a2:	fe843703          	ld	a4,-24(s0)
    800033a6:	fd843783          	ld	a5,-40(s0)
    800033aa:	40f707b3          	sub	a5,a4,a5
/home/jstine/riscv-wally/examples/C/simple/../common/syscalls.c:420
    800033ae:	853e                	mv	a0,a5
    800033b0:	7422                	ld	s0,40(sp)
    800033b2:	6145                	addi	sp,sp,48
    800033b4:	8082                	ret

00000000800033b6 <strnlen>:
strnlen():
/home/jstine/riscv-wally/examples/C/simple/../common/syscalls.c:423
    800033b6:	7179                	addi	sp,sp,-48
    800033b8:	f422                	sd	s0,40(sp)
    800033ba:	1800                	addi	s0,sp,48
    800033bc:	fca43c23          	sd	a0,-40(s0)
    800033c0:	fcb43823          	sd	a1,-48(s0)
/home/jstine/riscv-wally/examples/C/simple/../common/syscalls.c:424
    800033c4:	fd843783          	ld	a5,-40(s0)
    800033c8:	fef43423          	sd	a5,-24(s0)
/home/jstine/riscv-wally/examples/C/simple/../common/syscalls.c:425
    800033cc:	a031                	j	800033d8 <strnlen+0x22>
/home/jstine/riscv-wally/examples/C/simple/../common/syscalls.c:426
    800033ce:	fe843783          	ld	a5,-24(s0)
    800033d2:	0785                	addi	a5,a5,1
    800033d4:	fef43423          	sd	a5,-24(s0)
/home/jstine/riscv-wally/examples/C/simple/../common/syscalls.c:425
    800033d8:	fd043783          	ld	a5,-48(s0)
    800033dc:	fff78713          	addi	a4,a5,-1
    800033e0:	fce43823          	sd	a4,-48(s0)
    800033e4:	c791                	beqz	a5,800033f0 <strnlen+0x3a>
/home/jstine/riscv-wally/examples/C/simple/../common/syscalls.c:425 (discriminator 1)
    800033e6:	fe843783          	ld	a5,-24(s0)
    800033ea:	0007c783          	lbu	a5,0(a5)
    800033ee:	f3e5                	bnez	a5,800033ce <strnlen+0x18>
/home/jstine/riscv-wally/examples/C/simple/../common/syscalls.c:427
    800033f0:	fe843703          	ld	a4,-24(s0)
    800033f4:	fd843783          	ld	a5,-40(s0)
    800033f8:	40f707b3          	sub	a5,a4,a5
/home/jstine/riscv-wally/examples/C/simple/../common/syscalls.c:428
    800033fc:	853e                	mv	a0,a5
    800033fe:	7422                	ld	s0,40(sp)
    80003400:	6145                	addi	sp,sp,48
    80003402:	8082                	ret

0000000080003404 <strcmp>:
strcmp():
/home/jstine/riscv-wally/examples/C/simple/../common/syscalls.c:431
    80003404:	7179                	addi	sp,sp,-48
    80003406:	f422                	sd	s0,40(sp)
    80003408:	1800                	addi	s0,sp,48
    8000340a:	fca43c23          	sd	a0,-40(s0)
    8000340e:	fcb43823          	sd	a1,-48(s0)
/home/jstine/riscv-wally/examples/C/simple/../common/syscalls.c:435 (discriminator 2)
    80003412:	fd843783          	ld	a5,-40(s0)
    80003416:	00178713          	addi	a4,a5,1
    8000341a:	fce43c23          	sd	a4,-40(s0)
    8000341e:	0007c783          	lbu	a5,0(a5)
    80003422:	fef407a3          	sb	a5,-17(s0)
/home/jstine/riscv-wally/examples/C/simple/../common/syscalls.c:436 (discriminator 2)
    80003426:	fd043783          	ld	a5,-48(s0)
    8000342a:	00178713          	addi	a4,a5,1
    8000342e:	fce43823          	sd	a4,-48(s0)
    80003432:	0007c783          	lbu	a5,0(a5)
    80003436:	fef40723          	sb	a5,-18(s0)
/home/jstine/riscv-wally/examples/C/simple/../common/syscalls.c:437 (discriminator 2)
    8000343a:	fef44783          	lbu	a5,-17(s0)
    8000343e:	0ff7f793          	zext.b	a5,a5
    80003442:	cf81                	beqz	a5,8000345a <strcmp+0x56>
/home/jstine/riscv-wally/examples/C/simple/../common/syscalls.c:437 (discriminator 1)
    80003444:	fef44783          	lbu	a5,-17(s0)
    80003448:	873e                	mv	a4,a5
    8000344a:	fee44783          	lbu	a5,-18(s0)
    8000344e:	0ff77713          	zext.b	a4,a4
    80003452:	0ff7f793          	zext.b	a5,a5
    80003456:	faf70ee3          	beq	a4,a5,80003412 <strcmp+0xe>
/home/jstine/riscv-wally/examples/C/simple/../common/syscalls.c:439
    8000345a:	fef44783          	lbu	a5,-17(s0)
    8000345e:	0007871b          	sext.w	a4,a5
    80003462:	fee44783          	lbu	a5,-18(s0)
    80003466:	2781                	sext.w	a5,a5
    80003468:	40f707bb          	subw	a5,a4,a5
    8000346c:	2781                	sext.w	a5,a5
/home/jstine/riscv-wally/examples/C/simple/../common/syscalls.c:440
    8000346e:	853e                	mv	a0,a5
    80003470:	7422                	ld	s0,40(sp)
    80003472:	6145                	addi	sp,sp,48
    80003474:	8082                	ret

0000000080003476 <strcpy>:
strcpy():
/home/jstine/riscv-wally/examples/C/simple/../common/syscalls.c:443
    80003476:	7179                	addi	sp,sp,-48
    80003478:	f422                	sd	s0,40(sp)
    8000347a:	1800                	addi	s0,sp,48
    8000347c:	fca43c23          	sd	a0,-40(s0)
    80003480:	fcb43823          	sd	a1,-48(s0)
/home/jstine/riscv-wally/examples/C/simple/../common/syscalls.c:444
    80003484:	fd843783          	ld	a5,-40(s0)
    80003488:	fef43423          	sd	a5,-24(s0)
/home/jstine/riscv-wally/examples/C/simple/../common/syscalls.c:445
    8000348c:	0001                	nop
/home/jstine/riscv-wally/examples/C/simple/../common/syscalls.c:445 (discriminator 1)
    8000348e:	fd043703          	ld	a4,-48(s0)
    80003492:	00170793          	addi	a5,a4,1
    80003496:	fcf43823          	sd	a5,-48(s0)
    8000349a:	fe843783          	ld	a5,-24(s0)
    8000349e:	00178693          	addi	a3,a5,1
    800034a2:	fed43423          	sd	a3,-24(s0)
    800034a6:	00074703          	lbu	a4,0(a4)
    800034aa:	00e78023          	sb	a4,0(a5)
    800034ae:	0007c783          	lbu	a5,0(a5)
    800034b2:	fff1                	bnez	a5,8000348e <strcpy+0x18>
/home/jstine/riscv-wally/examples/C/simple/../common/syscalls.c:447
    800034b4:	fd843783          	ld	a5,-40(s0)
/home/jstine/riscv-wally/examples/C/simple/../common/syscalls.c:448
    800034b8:	853e                	mv	a0,a5
    800034ba:	7422                	ld	s0,40(sp)
    800034bc:	6145                	addi	sp,sp,48
    800034be:	8082                	ret

00000000800034c0 <atol>:
atol():
/home/jstine/riscv-wally/examples/C/simple/../common/syscalls.c:451
    800034c0:	7179                	addi	sp,sp,-48
    800034c2:	f422                	sd	s0,40(sp)
    800034c4:	1800                	addi	s0,sp,48
    800034c6:	fca43c23          	sd	a0,-40(s0)
/home/jstine/riscv-wally/examples/C/simple/../common/syscalls.c:452
    800034ca:	fe043423          	sd	zero,-24(s0)
/home/jstine/riscv-wally/examples/C/simple/../common/syscalls.c:453
    800034ce:	fe042223          	sw	zero,-28(s0)
/home/jstine/riscv-wally/examples/C/simple/../common/syscalls.c:455
    800034d2:	a031                	j	800034de <atol+0x1e>
/home/jstine/riscv-wally/examples/C/simple/../common/syscalls.c:456
    800034d4:	fd843783          	ld	a5,-40(s0)
    800034d8:	0785                	addi	a5,a5,1
    800034da:	fcf43c23          	sd	a5,-40(s0)
/home/jstine/riscv-wally/examples/C/simple/../common/syscalls.c:455
    800034de:	fd843783          	ld	a5,-40(s0)
    800034e2:	0007c783          	lbu	a5,0(a5)
    800034e6:	873e                	mv	a4,a5
    800034e8:	02000793          	li	a5,32
    800034ec:	fef704e3          	beq	a4,a5,800034d4 <atol+0x14>
/home/jstine/riscv-wally/examples/C/simple/../common/syscalls.c:458
    800034f0:	fd843783          	ld	a5,-40(s0)
    800034f4:	0007c783          	lbu	a5,0(a5)
    800034f8:	873e                	mv	a4,a5
    800034fa:	02d00793          	li	a5,45
    800034fe:	00f70b63          	beq	a4,a5,80003514 <atol+0x54>
/home/jstine/riscv-wally/examples/C/simple/../common/syscalls.c:458 (discriminator 1)
    80003502:	fd843783          	ld	a5,-40(s0)
    80003506:	0007c783          	lbu	a5,0(a5)
    8000350a:	873e                	mv	a4,a5
    8000350c:	02b00793          	li	a5,43
    80003510:	06f71263          	bne	a4,a5,80003574 <atol+0xb4>
/home/jstine/riscv-wally/examples/C/simple/../common/syscalls.c:459
    80003514:	fd843783          	ld	a5,-40(s0)
    80003518:	0007c783          	lbu	a5,0(a5)
    8000351c:	0007871b          	sext.w	a4,a5
    80003520:	02d00793          	li	a5,45
    80003524:	40f707b3          	sub	a5,a4,a5
    80003528:	0017b793          	seqz	a5,a5
    8000352c:	0ff7f793          	zext.b	a5,a5
    80003530:	fef42223          	sw	a5,-28(s0)
/home/jstine/riscv-wally/examples/C/simple/../common/syscalls.c:460
    80003534:	fd843783          	ld	a5,-40(s0)
    80003538:	0785                	addi	a5,a5,1
    8000353a:	fcf43c23          	sd	a5,-40(s0)
/home/jstine/riscv-wally/examples/C/simple/../common/syscalls.c:463
    8000353e:	a81d                	j	80003574 <atol+0xb4>
/home/jstine/riscv-wally/examples/C/simple/../common/syscalls.c:464
    80003540:	fe843703          	ld	a4,-24(s0)
    80003544:	87ba                	mv	a5,a4
    80003546:	078a                	slli	a5,a5,0x2
    80003548:	97ba                	add	a5,a5,a4
    8000354a:	0786                	slli	a5,a5,0x1
    8000354c:	fef43423          	sd	a5,-24(s0)
/home/jstine/riscv-wally/examples/C/simple/../common/syscalls.c:465
    80003550:	fd843783          	ld	a5,-40(s0)
    80003554:	00178713          	addi	a4,a5,1
    80003558:	fce43c23          	sd	a4,-40(s0)
    8000355c:	0007c783          	lbu	a5,0(a5)
    80003560:	2781                	sext.w	a5,a5
    80003562:	fd07879b          	addiw	a5,a5,-48
    80003566:	2781                	sext.w	a5,a5
    80003568:	873e                	mv	a4,a5
    8000356a:	fe843783          	ld	a5,-24(s0)
    8000356e:	97ba                	add	a5,a5,a4
    80003570:	fef43423          	sd	a5,-24(s0)
/home/jstine/riscv-wally/examples/C/simple/../common/syscalls.c:463
    80003574:	fd843783          	ld	a5,-40(s0)
    80003578:	0007c783          	lbu	a5,0(a5)
    8000357c:	f3f1                	bnez	a5,80003540 <atol+0x80>
/home/jstine/riscv-wally/examples/C/simple/../common/syscalls.c:468
    8000357e:	fe442783          	lw	a5,-28(s0)
    80003582:	2781                	sext.w	a5,a5
    80003584:	c791                	beqz	a5,80003590 <atol+0xd0>
/home/jstine/riscv-wally/examples/C/simple/../common/syscalls.c:468 (discriminator 1)
    80003586:	fe843783          	ld	a5,-24(s0)
    8000358a:	40f007b3          	neg	a5,a5
    8000358e:	a019                	j	80003594 <atol+0xd4>
/home/jstine/riscv-wally/examples/C/simple/../common/syscalls.c:468 (discriminator 2)
    80003590:	fe843783          	ld	a5,-24(s0)
/home/jstine/riscv-wally/examples/C/simple/../common/syscalls.c:469 (discriminator 5)
    80003594:	853e                	mv	a0,a5
    80003596:	7422                	ld	s0,40(sp)
    80003598:	6145                	addi	sp,sp,48
    8000359a:	8082                	ret
